(dp0
S'HaoDong'
p1
(dp2
(S'9'
p3
S'2'
p4
tp5
(lp6
V12
p7
aV2016-10-16 06:44:32
p8
as(g4
g4
tp9
(lp10
V0.15
p11
aV2016-10-16 05:35:20
p12
as(S'8'
p13
S'3'
p14
tp15
(lp16
V(1-3/C(47,2))^2
p17
aV2016-10-16 06:37:28
p18
as(S'7'
p19
g4
tp20
(lp21
VC(52,5)-C(40,5)
p22
aV2016-10-16 06:29:35
p23
as(S'4'
p24
S'1'
p25
tp26
(lp27
V0.07*0.5
p28
aV2016-10-16 06:46:53
p29
as(g14
g24
tp30
(lp31
V0.92*(1/10000)/(0.92*(1/10000)+0.01*(1-1/10000))
p32
aV2016-10-16 05:41:34
p33
as(g25
g4
tp34
(lp35
V0.08/0.4
p36
aV2016-10-16 05:24:49
p37
as(g3
S'5'
p38
tp39
(lp40
V15
p41
aV2016-10-16 06:44:32
p42
as(g4
g14
tp43
(lp44
V0.15
p45
aV2016-10-16 05:35:20
p46
as(g38
g24
tp47
(lp48
V(4^2+4*C(52-5-4,1)+C(4,2))/C(47,2)
p49
aV2016-10-16 06:08:04
p50
as(g4
g38
tp51
(lp52
V0.15/0.3
p53
aV2016-10-16 05:35:20
p54
as(g3
g25
tp55
(lp56
V13
p57
aV2016-10-16 06:44:32
p58
as(g19
g25
tp59
(lp60
VC(8*4,5)-C(5*4,5)
p61
aV2016-10-16 06:29:35
p62
as(g14
g14
tp63
(lp64
V0.92*(1/10000)
p65
aV2016-10-16 05:41:34
p66
as(g38
g14
tp67
(lp68
VC(47,2)
p69
aV2016-10-16 06:08:04
p70
as(g3
g24
tp71
(lp72
V1
p73
aV2016-10-16 06:44:32
p74
as(g4
g19
tp75
(lp76
V0.2/0.15
p77
aV2016-10-16 05:35:20
p78
as(g24
g4
tp79
(lp80
V0.07*0.5+0.04*0.5
p81
aV2016-10-16 06:46:53
p82
as(g13
g25
tp83
(lp84
V3
p85
aV2016-10-16 06:37:28
p86
as(g25
g25
tp87
(lp88
V0.08
p89
aV2016-10-16 05:24:49
p90
as(S'6'
p91
g25
tp92
(lp93
V4^2+4^2
p94
aV2016-10-16 06:11:52
p95
as(g14
g4
tp96
(lp97
V0.92*(1/10000)+0.01*(1-1/10000)
p98
aV2016-10-16 05:41:34
p99
as(g38
g4
tp100
(lp101
V4*C(52-5-4,1)+C(4,2)
p102
aV2016-10-16 06:08:04
p103
as(g24
g14
tp104
(lp105
V(0.07*0.5)/(0.07*0.5+0.04*0.5)
p106
aV2016-10-16 06:46:53
p107
as(g91
g4
tp108
(lp109
V(4^2+4^2)/C(47,2)
p110
aV2016-10-16 06:11:52
p111
as(g3
g14
tp112
(lp113
V13*12
p114
aV2016-10-16 06:44:32
p115
as(g4
g25
tp116
(lp117
V0.15
p118
aV2016-10-16 05:35:20
p119
as(g13
g4
tp120
(lp121
V(1-3/C(47,2))
p122
aV2016-10-16 06:37:28
p123
as(g14
g25
tp124
(lp125
V1/10000
p126
aV2016-10-16 05:41:34
p127
as(g19
g14
tp128
(lp129
V(C(8*4,5)-C(5*4,5))/(C(52,5)-C(40,5))
p130
aV2016-10-16 06:29:35
p131
as(g3
g91
tp132
(lp133
V15/(13*12)
p134
aV2016-10-16 06:44:32
p135
as(g4
g91
tp136
(lp137
V0.2
p138
aV2016-10-16 05:35:20
p139
as(g4
g24
tp140
(lp141
V0.15/0.3
p142
aV2016-10-16 05:35:20
p143
as(g25
g14
tp144
(lp145
V0
p146
aV2016-10-16 05:24:49
p147
as(g38
g25
tp148
(lp149
V4^2
p150
aV2016-10-16 06:08:04
p151
assS'Ian'
p152
(dp153
(g4
g14
tp154
(lp155
V.4+.4-.6
p156
aV2016-10-18 03:34:13
p157
as(g4
g91
tp158
(lp159
V.75+(.4+.4-.6)+(.4+.4-.6)+(.4+.4-.6)-.4-.4-.4
p160
aV2016-10-18 03:34:13
p161
as(g38
g4
tp162
(lp163
V8
p164
aV2016-10-18 04:07:21
p165
as(g4
g25
tp166
(lp167
V.4+.4-.6
p168
aV2016-10-18 03:34:13
p169
as(g38
g24
tp170
(lp171
V(16*8)/C(47,2)
p172
aV2016-10-18 04:07:21
p173
as(g4
g38
tp174
(lp175
V(.4+.4-.6)/.4
p176
aV2016-10-18 03:34:13
p177
as(g25
g14
tp178
(lp179
V0
p180
aV2016-10-18 03:24:21
p181
as(g4
g4
tp182
(lp183
V.4+.4-.6
p184
aV2016-10-18 03:34:13
p185
as(g14
g25
tp186
(lp187
V1/10000
p188
aV2016-10-18 03:55:13
p189
as(g25
g25
tp190
(lp191
V.16
p192
aV2016-10-18 03:24:21
p193
as(g14
g4
tp194
(lp195
V((95/100)*(1/10000))+((2/100)*(9999/10000))
p196
aV2016-10-18 03:55:13
p197
as(g4
g24
tp198
(lp199
V(.4+.4-.6)/.4
p200
aV2016-10-18 03:34:13
p201
as(g24
g25
tp202
(lp203
V(7/100)*.5
p204
aV2016-10-18 03:50:45
p205
as(g14
g14
tp206
(lp207
V((95/100) * (1/10000))
p208
aV2016-10-18 03:55:13
p209
as(g38
g14
tp210
(lp211
VC(47,2)
p212
aV2016-10-18 04:07:21
p213
as(g14
g24
tp214
(lp215
V(.95*(1/10000))/(((95/100)*(1/10000))+((2/100)*(9999/10000)))
p216
aV2016-10-18 03:55:13
p217
as(g38
g25
tp218
(lp219
V16
p220
aV2016-10-18 04:07:21
p221
as(g24
g14
tp222
(lp223
V((7/100)*.5)/((.07*.5)+(.03*.5))
p224
aV2016-10-18 03:50:45
p225
as(g25
g4
tp226
(lp227
V.16/.2
p228
aV2016-10-18 03:24:21
p229
as(g4
g19
tp230
(lp231
V(.75+(.4+.4-.6)+(.4+.4-.6)+(.4+.4-.6)-.4-.4-.4)/(.4+.4-.6)
p232
aV2016-10-18 03:34:13
p233
as(g24
g4
tp234
(lp235
V(.07*.5)+(.03*.5)
p236
aV2016-10-18 03:50:45
p237
assS'piamsiri'
p238
(dp239
(g3
g4
tp240
(lp241
V13
p242
aV2016-10-18 06:52:18
p243
as(g4
g4
tp244
(lp245
V0.3 + 0.3 - 0.5
p246
aV2016-10-17 19:40:29
p247
as(g13
g14
tp248
(lp249
V(1-3 / C(45, 2)) * (1-3 / C(43, 2))
p250
aV2016-10-18 06:39:39
p251
as(g19
g4
tp252
(lp253
VC(52,5) - C(40,5)
p254
aV2016-10-18 06:32:09
p255
as(g24
g25
tp256
(lp257
V7/100*1/2
p258
aV2016-10-18 03:08:46
p259
as(g14
g24
tp260
(lp261
V(92/1000000) / ((92/100)*(1/10000) + (1/100)*(9999/10000))
p262
aV2016-10-17 20:45:19
p263
as(g25
g4
tp264
(lp265
V0.18/0.3
p266
aV2016-10-17 19:32:24
p267
as(g3
g38
tp268
(lp269
V(15-4)*(15-4-1) / 2
p270
aV2016-10-18 06:52:18
p271
as(g4
g14
tp272
(lp273
V0.25 + 0.3 - 0.45
p274
aV2016-10-17 19:40:29
p275
as(g38
g24
tp276
(lp277
V(16+178) / (C(47,2))
p278
aV2016-10-18 04:54:31
p279
as(g4
g38
tp280
(lp281
V(0.25 + 0.3 - 0.45) / (0.25)
p282
aV2016-10-17 19:40:29
p283
as(g3
g25
tp284
(lp285
V14
p286
aV2016-10-18 06:52:18
p287
as(g19
g25
tp288
(lp289
VC(32,5) - C(20,5)
p290
aV2016-10-18 06:32:09
p291
as(g14
g14
tp292
(lp293
V92/1000000
p294
aV2016-10-17 20:45:19
p295
as(g38
g14
tp296
(lp297
VC(47,2)
p298
aV2016-10-18 04:54:31
p299
as(g3
g24
tp300
(lp301
V7-4-1
p302
aV2016-10-18 06:52:18
p303
as(g4
g19
tp304
(lp305
V(0.25 + 0.3 + 0.3 - 0.45 - 0.45 - 0.5 + 0.6) / (0.3 + 0.3 - 0.5)
p306
aV2016-10-17 19:40:29
p307
as(g24
g4
tp308
(lp309
V(7/100*1/2) + (3/100*1/2)
p310
aV2016-10-18 03:08:46
p311
as(g13
g25
tp312
(lp313
V3
p314
aV2016-10-18 06:39:39
p315
as(g25
g25
tp316
(lp317
V0.18
p318
aV2016-10-17 19:32:24
p319
as(g91
g25
tp320
(lp321
V32
p322
aV2016-10-18 06:22:17
p323
as(g14
g4
tp324
(lp325
V(92/100)*(1/10000) + (1/100)*(9999/10000)
p326
aV2016-10-17 20:45:19
p327
as(g38
g4
tp328
(lp329
V178
p330
aV2016-10-18 04:54:31
p331
as(g24
g14
tp332
(lp333
V(7/100*1/2) / ((7/100*1/2) + (3/100*1/2))
p334
aV2016-10-18 03:08:46
p335
as(g91
g4
tp336
(lp337
V32/C(47,2)
p338
aV2016-10-18 06:22:17
p339
as(g3
g14
tp340
(lp341
V14*13
p342
aV2016-10-18 06:52:18
p343
as(g4
g25
tp344
(lp345
V0.25 + 0.3 - 0.45
p346
aV2016-10-17 19:40:29
p347
as(g13
g4
tp348
(lp349
V1-3 / C(45, 2)
p350
aV2016-10-18 06:39:39
p351
as(g14
g25
tp352
(lp353
V1/10000
p354
aV2016-10-17 20:45:19
p355
as(g19
g14
tp356
(lp357
V(C(32,5) - C(20,5)) / (C(52,5) - C(40,5))
p358
aV2016-10-18 06:32:09
p359
as(g3
g91
tp360
(lp361
V((15-4)*(15-4-1) / 2) / (14*13)
p362
aV2016-10-18 06:52:18
p363
as(g4
g91
tp364
(lp365
V0.25 + 0.3 + 0.3 - 0.45 - 0.45 - 0.5 + 0.6
p366
aV2016-10-17 19:40:29
p367
as(g4
g24
tp368
(lp369
V(0.25 + 0.3 - 0.45) / (0.3)
p370
aV2016-10-17 19:40:29
p371
as(g25
g14
tp372
(lp373
V0
p374
aV2016-10-17 19:32:24
p375
as(g38
g25
tp376
(lp377
V16
p378
aV2016-10-18 04:54:31
p379
assS'VanessaC'
p380
(dp381
(g4
g14
tp382
(lp383
V0.1
p384
aV2016-10-17 07:16:55
p385
as(g25
g25
tp386
(lp387
V0.1
p388
aV2016-10-17 06:54:58
p389
as(g4
g4
tp390
(lp391
V0.1
p392
aV2016-10-17 07:16:55
p393
as(g4
g25
tp394
(lp395
V0.15
p396
aV2016-10-17 07:16:55
p397
as(g4
g38
tp398
(lp399
V0.5
p400
aV2016-10-17 07:16:55
p401
as(g19
g25
tp402
(lp403
V(32!/(27!5!))-(20!/(5!15!))
p404
aV2016-10-18 20:52:22
p405
as(g25
g14
tp406
(lp407
V0
p408
aV2016-10-17 06:54:58
p409
as(g19
g4
tp410
(lp411
V(52!/(5!47!))-((40!)/(5!35!))
p412
aV2016-10-18 20:52:22
p413
as(g14
g25
tp414
(lp415
V0.0001
p416
aV2016-10-17 07:32:04
p417
as(g19
g14
tp418
(lp419
V((32!/(27!5!))-(20!/(5!15!)))/((52!/(5!47!))-((40!)/(5!35!)))
p420
aV2016-10-18 20:52:22
p421
as(g14
g4
tp422
(lp423
V0.020092
p424
aV2016-10-17 07:32:04
p425
as(g24
g25
tp426
(lp427
V0.03
p428
aV2016-10-18 18:51:25
p429
as(g14
g14
tp430
(lp431
V0.94*0.0001
p432
aV2016-10-17 07:32:04
p433
as(g4
g91
tp434
(lp435
V0.1
p436
aV2016-10-17 07:16:55
p437
as(g14
g24
tp438
(lp439
V(0.94)*(0.0001)/0.020092
p440
aV2016-10-17 07:32:04
p441
as(g4
g24
tp442
(lp443
V0.5
p444
aV2016-10-17 07:16:55
p445
as(g24
g14
tp446
(lp447
V0.6
p448
aV2016-10-18 18:51:25
p449
as(g25
g4
tp450
(lp451
V0.2
p452
aV2016-10-17 06:54:58
p453
as(g4
g19
tp454
(lp455
V1
p456
aV2016-10-17 07:16:55
p457
as(g24
g4
tp458
(lp459
V0.05
p460
aV2016-10-18 18:51:25
p461
assS'ReneSanchez'
p462
(dp463
(g3
g4
tp464
(lp465
V12
p466
aV2016-10-17 23:25:26
p467
as(g4
g4
tp468
(lp469
V0.35 + 0.4 - 0.55
p470
aV2016-10-17 19:10:11
p471
as(g13
g14
tp472
(lp473
V((C(45,2) - 3)/C(45,2) )*( (C(43,2) - 3)/C(43,2))
p474
aV2016-10-17 22:46:13
p475
as(g19
g4
tp476
(lp477
VC(52,5) - C(40,5)
p478
aV2016-10-17 22:33:43
p479
as(g24
g25
tp480
(lp481
V(6/100)*(1/2)
p482
aV2016-10-17 19:26:11
p483
as(g14
g24
tp484
(lp485
V((93/100)*(1/10000))/((93/100)*(1/10000) + (2/100)*(9999/10000))
p486
aV2016-10-17 19:18:26
p487
as(g25
g4
tp488
(lp489
V( 0.5 + 0.5 - 0.5 )/ 0.5
p490
aV2016-10-17 07:34:57
p491
as(g3
g38
tp492
(lp493
V15
p494
aV2016-10-17 23:25:26
p495
as(g4
g14
tp496
(lp497
V0.3 + 0.4 - 0.5
p498
aV2016-10-17 19:10:11
p499
as(g38
g24
tp500
(lp501
V(4*4 + C(47,2) - C(43,2) )/C(47,2)
p502
aV2016-10-17 22:16:23
p503
as(g4
g38
tp504
(lp505
V(0.3 + 0.35 - 0.5)/0.3
p506
aV2016-10-17 19:10:11
p507
as(g3
g25
tp508
(lp509
V13
p510
aV2016-10-17 23:25:26
p511
as(g19
g25
tp512
(lp513
VC(32, 5) - C(20,5) 
p514
aV2016-10-17 22:33:43
p515
as(g14
g14
tp516
(lp517
V(93/100)*(1/10000)
p518
aV2016-10-17 19:18:26
p519
as(g38
g14
tp520
(lp521
VC(47,2)
p522
aV2016-10-17 22:16:23
p523
as(g3
g24
tp524
(lp525
V3
p526
aV2016-10-17 23:25:26
p527
as(g4
g19
tp528
(lp529
V(0.65 - 0.3 - 0.35 - 0.4 + (0.3 + 0.35 - 0.5 ) + (0.3 + 0.4 - 0.5) + (0.35 + 0.4 - 0.55 )  )/(0.35 + 0.4 - 0.55) 
p530
aV2016-10-17 19:10:11
p531
as(g24
g4
tp532
(lp533
V((6/100)*(1/2)) + ((4/100)*(1/2))
p534
aV2016-10-17 19:26:11
p535
as(g13
g25
tp536
(lp537
V3
p538
aV2016-10-17 22:46:13
p539
as(g25
g25
tp540
(lp541
V0.5 + 0.5 - 0.5
p542
aV2016-10-17 07:34:57
p543
as(g91
g25
tp544
(lp545
VC(4,1)*(C(4,1) + C(4,1))
p546
aV2016-10-17 23:48:31
p547
as(g14
g4
tp548
(lp549
V(93/100)*(1/10000) + (2/100)*(9999/10000)
p550
aV2016-10-17 19:18:26
p551
as(g38
g4
tp552
(lp553
VC(47,2) - C(43,2)
p554
aV2016-10-17 22:16:23
p555
as(g24
g14
tp556
(lp557
V((6/100)*(1/2))/(((6/100)*(1/2)) + ((4/100)*(1/2)))
p558
aV2016-10-17 19:26:11
p559
as(g91
g4
tp560
(lp561
V(C(4,1)*(C(4,1) + C(4,1)))/(C(47,2) )
p562
aV2016-10-17 23:48:31
p563
as(g3
g14
tp564
(lp565
V13*12
p566
aV2016-10-17 23:25:26
p567
as(g4
g25
tp568
(lp569
V0.3 + 0.35 - 0.5
p570
aV2016-10-17 19:10:11
p571
as(g13
g4
tp572
(lp573
V(C(45,2) - 3)/C(45,2) 
p574
aV2016-10-17 22:46:13
p575
as(g14
g25
tp576
(lp577
V1/10000
p578
aV2016-10-17 19:18:26
p579
as(g19
g14
tp580
(lp581
V(C(32,5) - C(20,5))/(C(52,5) - C(40,5) )
p582
aV2016-10-17 22:33:43
p583
as(g3
g91
tp584
(lp585
V15/(13*12)
p586
aV2016-10-17 23:25:26
p587
as(g4
g91
tp588
(lp589
V0.65 - 0.3 - 0.35 - 0.4 + (0.3 + 0.35 - 0.5 ) + (0.3 + 0.4 - 0.5) + (0.35 + 0.4 - 0.55 ) 
p590
aV2016-10-17 19:10:11
p591
as(g4
g24
tp592
(lp593
V(0.3 + 0.35 - 0.5)/0.35
p594
aV2016-10-17 19:10:11
p595
as(g25
g14
tp596
(lp597
V0
p598
aV2016-10-17 07:34:57
p599
as(g38
g25
tp600
(lp601
V4*4
p602
aV2016-10-17 22:16:23
p603
assS'til005'
p604
(dp605
(g3
g4
tp606
(lp607
V13
p608
aV2016-10-18 03:47:55
p609
as(g4
g4
tp610
(lp611
V0.15
p612
aV2016-10-18 03:10:02
p613
as(g13
g14
tp614
(lp615
V1-3/C(45,2)-3/C(45,2)
p616
aV2016-10-18 04:10:44
p617
as(g19
g4
tp618
(lp619
VC(52,5)-C(40,5)
p620
aV2016-10-18 03:38:59
p621
as(g24
g25
tp622
(lp623
V0.07*0.5
p624
aV2016-10-18 03:23:28
p625
as(g14
g24
tp626
(lp627
V0.93*1/10000/(0.93*1/10000+0.01*(1-1/10000))
p628
aV2016-10-18 03:22:15
p629
as(g25
g4
tp630
(lp631
V0.3/0.3
p632
aV2016-10-18 03:04:07
p633
as(g3
g38
tp634
(lp635
V55
p636
aV2016-10-18 03:47:55
p637
as(g4
g14
tp638
(lp639
V0.15
p640
aV2016-10-18 03:10:02
p641
as(g38
g24
tp642
(lp643
V(16+C(47,2)-C(43,2))/C(47,2)
p644
aV2016-10-18 04:02:23
p645
as(g4
g38
tp646
(lp647
V0.2/0.35
p648
aV2016-10-18 03:10:02
p649
as(g3
g25
tp650
(lp651
V14
p652
aV2016-10-18 03:47:55
p653
as(g19
g25
tp654
(lp655
VC(32,5)-C(20,5)
p656
aV2016-10-18 03:38:59
p657
as(g14
g14
tp658
(lp659
V0.93*1/10000
p660
aV2016-10-18 03:22:15
p661
as(g38
g14
tp662
(lp663
VC(47,2)
p664
aV2016-10-18 04:02:23
p665
as(g3
g24
tp666
(lp667
V3
p668
aV2016-10-18 03:47:55
p669
as(g4
g19
tp670
(lp671
V0.15/0.15
p672
aV2016-10-18 03:10:02
p673
as(g24
g4
tp674
(lp675
V0.07*0.5+0.04*0.5
p676
aV2016-10-18 03:23:28
p677
as(g13
g25
tp678
(lp679
V3
p680
aV2016-10-18 04:10:44
p681
as(g25
g25
tp682
(lp683
V0.3
p684
aV2016-10-18 03:04:07
p685
as(g91
g25
tp686
(lp687
V32
p688
aV2016-10-18 04:06:05
p689
as(g14
g4
tp690
(lp691
V0.93*1/10000+0.01*(1-1/10000)
p692
aV2016-10-18 03:22:15
p693
as(g38
g4
tp694
(lp695
VC(47,2)-C(43,2)
p696
aV2016-10-18 04:02:23
p697
as(g24
g14
tp698
(lp699
V0.07*0.5/(0.07*0.5+0.04*0.5)
p700
aV2016-10-18 03:23:28
p701
as(g91
g4
tp702
(lp703
V32/(C(47,2))
p704
aV2016-10-18 04:06:05
p705
as(g3
g14
tp706
(lp707
V14*13
p708
aV2016-10-18 03:47:55
p709
as(g4
g25
tp710
(lp711
V0.2
p712
aV2016-10-18 03:10:02
p713
as(g13
g4
tp714
(lp715
V1-3/C(45,2)
p716
aV2016-10-18 04:10:44
p717
as(g14
g25
tp718
(lp719
V1/10000
p720
aV2016-10-18 03:22:15
p721
as(g19
g14
tp722
(lp723
V(C(32,5)-C(20,5))/(C(52,5)-C(40,5))
p724
aV2016-10-18 03:38:59
p725
as(g3
g91
tp726
(lp727
V55/(14*13)
p728
aV2016-10-18 03:47:55
p729
as(g4
g91
tp730
(lp731
V0.15
p732
aV2016-10-18 03:10:02
p733
as(g4
g24
tp734
(lp735
V0.2/0.4
p736
aV2016-10-18 03:10:02
p737
as(g25
g14
tp738
(lp739
V0
p740
aV2016-10-18 03:04:07
p741
as(g38
g25
tp742
(lp743
V16
p744
aV2016-10-18 04:02:23
p745
assS'HansGamboa'
p746
(dp747
(g25
g4
tp748
(lp749
V0.4
p750
aV2016-10-16 21:21:30
p751
as(g25
g25
tp752
(lp753
V(0.4)*(0.1)
p754
aV2016-10-16 21:21:30
p755
as(g25
g14
tp756
(lp757
V1
p758
aV2016-10-16 21:21:30
p759
assS'AndrewYang24'
p760
(dp761
(g4
g14
tp762
(lp763
V0.35+0.2-0.25
p764
aV2016-10-16 04:01:13
p765
as(g25
g25
tp766
(lp767
V0.05
p768
aV2016-10-16 03:12:24
p769
as(g4
g4
tp770
(lp771
V0.25+0.2-0.25
p772
aV2016-10-16 04:01:13
p773
as(g4
g25
tp774
(lp775
V0.35+0.25-0.4
p776
aV2016-10-16 04:01:13
p777
as(g4
g19
tp778
(lp779
V(0.35+0.25-0.4)/0.25*0.2
p780
aV2016-10-16 04:01:13
p781
as(g25
g4
tp782
(lp783
V0.1
p784
aV2016-10-16 03:12:24
p785
as(g25
g14
tp786
(lp787
V1
p788
aV2016-10-16 03:12:24
p789
as(g4
g24
tp790
(lp791
V(0.35+0.25-0.4)/0.25
p792
aV2016-10-16 04:01:13
p793
assS'malloryishaya'
p794
(dp795
(g4
g14
tp796
(lp797
V0.35 + 0.4 - 0.55
p798
aV2016-10-17 22:44:08
p799
as(g25
g25
tp800
(lp801
V0.2
p802
aV2016-10-17 22:21:46
p803
as(g4
g4
tp804
(lp805
V0.3 + 0.4 - 0.5
p806
aV2016-10-17 22:44:08
p807
as(g4
g25
tp808
(lp809
V0.35 + 0.3 - 0.5
p810
aV2016-10-17 22:44:08
p811
as(g25
g14
tp812
(lp813
V1
p814
aV2016-10-17 22:21:46
p815
as(g14
g25
tp816
(lp817
V1/10000
p818
aV2016-10-17 22:58:09
p819
as(g14
g4
tp820
(lp821
V(95/100)(1/10000)+(2/100)(9999)
p822
aV2016-10-17 22:58:09
p823
as(g4
g19
tp824
(lp825
V(0.7 -0.35-0.4-0.3+0.15+.4)/(0.3+0.4-0.5)
p826
aV2016-10-17 22:44:08
p827
as(g14
g14
tp828
(lp829
V(.95)(1/10000)
p830
aV2016-10-17 22:58:09
p831
as(g4
g91
tp832
(lp833
V0.7 -0.35-0.4-0.3+0.15+.4
p834
aV2016-10-17 22:44:08
p835
as(g14
g24
tp836
(lp837
V((.95)(1/10000))/((95/100)(1/10000)+(2/100)(9999))
p838
aV2016-10-17 22:58:09
p839
as(g4
g38
tp840
(lp841
V(0.35+0.3-0.5)/0.35
p842
aV2016-10-17 22:44:08
p843
as(g25
g4
tp844
(lp845
V0.2/0.4
p846
aV2016-10-17 22:21:46
p847
as(g4
g24
tp848
(lp849
V(0.35 +0.3 -0.5)/0.3
p850
aV2016-10-17 22:44:08
p851
assS'Ryan_Yi'
p852
(dp853
(g3
g4
tp854
(lp855
V13 - 2
p856
aV2016-10-16 06:01:36
p857
as(g4
g4
tp858
(lp859
V0.3 + 0.3 - 0.4
p860
aV2016-10-16 06:34:52
p861
as(g13
g14
tp862
(lp863
V(C(47,2)-6)/(C(47,2))
p864
aV2016-10-16 05:40:50
p865
as(g19
g4
tp866
(lp867
VC(52,5) - C(40,5)
p868
aV2016-10-16 05:21:29
p869
as(g24
g25
tp870
(lp871
V0.06 * 0.5
p872
aV2016-10-16 06:07:37
p873
as(g14
g24
tp874
(lp875
V((1/10000) * (93/100))/((93/100)*(1/10000) + (1/100) * (9999/10000))
p876
aV2016-10-16 06:22:43
p877
as(g25
g4
tp878
(lp879
V(0.3+0.5-0.5)/(0.5)
p880
aV2016-10-16 06:30:38
p881
as(g3
g38
tp882
(lp883
V1+2+3+4+5+6
p884
aV2016-10-16 06:01:36
p885
as(g4
g14
tp886
(lp887
V0.3 + 0.3 - 0.4
p888
aV2016-10-16 06:34:52
p889
as(g38
g24
tp890
(lp891
V((C(4,1) * C(4,1)) + (C(4,1) * C(46,1) - 6))/(C(47,2))
p892
aV2016-10-16 05:02:45
p893
as(g4
g38
tp894
(lp895
V((0.3)+(0.3) - (0.45))/(0.3)
p896
aV2016-10-16 06:34:52
p897
as(g3
g25
tp898
(lp899
V13 - 1
p900
aV2016-10-16 06:01:36
p901
as(g19
g25
tp902
(lp903
V(C(20,4) * C(12,1)) + (C(20,3) * C(12,2)) + (C(20,2) * C(12,3)) + (C(20,1) * C(12,4)) + (C(12,5))
p904
aV2016-10-16 05:21:29
p905
as(g14
g14
tp906
(lp907
V(1/10000) * (93/100)
p908
aV2016-10-16 06:22:43
p909
as(g38
g14
tp910
(lp911
VC(47,2)
p912
aV2016-10-16 05:02:45
p913
as(g3
g24
tp914
(lp915
V1
p916
aV2016-10-16 06:01:36
p917
as(g4
g19
tp918
(lp919
V((0.6 - 0.3 - 0.3 - 0.3) + (0.3)+(0.3) - (0.45) +(0.3 + 0.3 - 0.4) + (0.3 + 0.3 - 0.4) )/(0.3 + 0.3 - 0.4)
p920
aV2016-10-16 06:34:52
p921
as(g24
g4
tp922
(lp923
V(0.06 * 0.5) + (0.04*0.5)
p924
aV2016-10-16 06:07:37
p925
as(g13
g25
tp926
(lp927
V3
p928
aV2016-10-16 05:40:50
p929
as(g25
g25
tp930
(lp931
V0.3+0.5-0.5
p932
aV2016-10-16 06:30:38
p933
as(g91
g25
tp934
(lp935
V(C(4,1) * C(4,1)) + (C(4,1) * C(4,1))
p936
aV2016-10-16 05:11:33
p937
as(g14
g4
tp938
(lp939
V(93/100)*(1/10000) + (1/100) * (9999/10000)
p940
aV2016-10-16 06:22:43
p941
as(g38
g4
tp942
(lp943
VC(4,1) * C(46,1) - 6
p944
aV2016-10-16 05:02:45
p945
as(g24
g14
tp946
(lp947
V(0.06 * 0.5)/((0.06 * 0.5) + (0.04*0.5))
p948
aV2016-10-16 06:07:37
p949
as(g91
g4
tp950
(lp951
V((C(4,1) * C(4,1)) + (C(4,1) * C(4,1)))/(C(47,2))
p952
aV2016-10-16 05:11:33
p953
as(g3
g14
tp954
(lp955
V12 * 11
p956
aV2016-10-16 06:01:36
p957
as(g4
g25
tp958
(lp959
V(0.3)+(0.3) - (0.45)
p960
aV2016-10-16 06:34:52
p961
as(g13
g4
tp962
(lp963
V(C(47,2)-3)/(C(47,2))
p964
aV2016-10-16 05:40:50
p965
as(g14
g25
tp966
(lp967
V1/10000
p968
aV2016-10-16 06:22:43
p969
as(g19
g14
tp970
(lp971
V((C(20,4) * C(12,1)) + (C(20,3) * C(12,2)) + (C(20,2) * C(12,3)) + (C(20,1) * C(12,4)) + (C(12,5)))/(C(52,5) - C(40,5))
p972
aV2016-10-16 05:21:29
p973
as(g3
g91
tp974
(lp975
V(1+2+3+4+5+6)/(12*11)
p976
aV2016-10-16 06:01:36
p977
as(g4
g91
tp978
(lp979
V(0.6 - 0.3 - 0.3 - 0.3) + (0.3)+(0.3) - (0.45) +(0.3 + 0.3 - 0.4) + (0.3 + 0.3 - 0.4) 
p980
aV2016-10-16 06:34:52
p981
as(g4
g24
tp982
(lp983
V((0.3)+(0.3) - (0.45))/(0.3)
p984
aV2016-10-16 06:34:52
p985
as(g25
g14
tp986
(lp987
V0
p988
aV2016-10-16 06:30:38
p989
as(g38
g25
tp990
(lp991
VC(4,1) * C(4,1)
p992
aV2016-10-16 05:02:45
p993
assS'chenboy3'
p994
(dp995
(g3
g4
tp996
(lp997
V13
p998
aV2016-10-16 16:53:08
p999
as(g4
g4
tp1000
(lp1001
V0.15
p1002
aV2016-10-16 16:27:48
p1003
as(g13
g14
tp1004
(lp1005
V1 - (3*C(45,2) - 1)/ (C(47,2) * C(45,2)/2)
p1006
aV2016-10-16 16:45:19
p1007
as(g19
g4
tp1008
(lp1009
VC(52,5) - C(40,5)
p1010
aV2016-10-16 16:39:44
p1011
as(g24
g25
tp1012
(lp1013
V1/2 * 7/100
p1014
aV2016-10-16 16:30:43
p1015
as(g14
g24
tp1016
(lp1017
V(93/100 * 1/10000)/(93/100 * 1/10000 + 1/100 * 9999/10000)
p1018
aV2016-10-16 16:29:41
p1019
as(g25
g4
tp1020
(lp1021
V0.6
p1022
aV2016-10-16 16:25:38
p1023
as(g3
g38
tp1024
(lp1025
V78
p1026
aV2016-10-16 16:53:08
p1027
as(g4
g14
tp1028
(lp1029
V0.15
p1030
aV2016-10-16 16:27:48
p1031
as(g38
g24
tp1032
(lp1033
V(16+47*46/2 - 43*42/2)/(47*46/2)
p1034
aV2016-10-16 16:35:19
p1035
as(g4
g38
tp1036
(lp1037
V0.2/0.35
p1038
aV2016-10-16 16:27:48
p1039
as(g3
g25
tp1040
(lp1041
V14
p1042
aV2016-10-16 16:53:08
p1043
as(g19
g25
tp1044
(lp1045
VC(32,5) - C(20,5)
p1046
aV2016-10-16 16:39:44
p1047
as(g14
g14
tp1048
(lp1049
V93/100 * 1/10000
p1050
aV2016-10-16 16:29:41
p1051
as(g38
g14
tp1052
(lp1053
V47*46/2
p1054
aV2016-10-16 16:35:19
p1055
as(g3
g24
tp1056
(lp1057
V8
p1058
aV2016-10-16 16:53:08
p1059
as(g4
g19
tp1060
(lp1061
V0.1/0.15
p1062
aV2016-10-16 16:27:48
p1063
as(g24
g4
tp1064
(lp1065
V1/2 * 7/100 + 1/2 * 3 /100
p1066
aV2016-10-16 16:30:43
p1067
as(g13
g25
tp1068
(lp1069
V3
p1070
aV2016-10-16 16:45:19
p1071
as(g25
g25
tp1072
(lp1073
V0.18
p1074
aV2016-10-16 16:25:38
p1075
as(g91
g25
tp1076
(lp1077
V8*4
p1078
aV2016-10-16 16:36:19
p1079
as(g14
g4
tp1080
(lp1081
V93/100 * 1/10000 + 1/100 * 9999/10000
p1082
aV2016-10-16 16:29:41
p1083
as(g38
g4
tp1084
(lp1085
V47*46/2 - 43*42/2
p1086
aV2016-10-16 16:35:19
p1087
as(g24
g14
tp1088
(lp1089
V(1/2 * 7/100)/(1/2 * 7/100 + 1/2 * 3 /100)
p1090
aV2016-10-16 16:30:43
p1091
as(g91
g4
tp1092
(lp1093
V32/(47*46/2)
p1094
aV2016-10-16 16:36:19
p1095
as(g3
g14
tp1096
(lp1097
V14*13
p1098
aV2016-10-16 16:53:08
p1099
as(g4
g25
tp1100
(lp1101
V0.2
p1102
aV2016-10-16 16:27:48
p1103
as(g13
g4
tp1104
(lp1105
V1-3/C(47,2)
p1106
aV2016-10-16 16:45:19
p1107
as(g14
g25
tp1108
(lp1109
V1/10000
p1110
aV2016-10-16 16:29:41
p1111
as(g19
g14
tp1112
(lp1113
V(C(32,5) - C(20,5))/(C(52,5) - C(40,5))
p1114
aV2016-10-16 16:39:44
p1115
as(g3
g91
tp1116
(lp1117
V78/(14*13)
p1118
aV2016-10-16 16:53:08
p1119
as(g4
g91
tp1120
(lp1121
V0.1
p1122
aV2016-10-16 16:27:48
p1123
as(g4
g24
tp1124
(lp1125
V0.2/0.35
p1126
aV2016-10-16 16:27:48
p1127
as(g25
g14
tp1128
(lp1129
V0
p1130
aV2016-10-16 16:25:38
p1131
as(g38
g25
tp1132
(lp1133
V16
p1134
aV2016-10-16 16:35:19
p1135
assS'jih089'
p1136
(dp1137
(g3
g4
tp1138
(lp1139
V12
p1140
aV2016-10-16 05:33:07
p1141
as(g4
g4
tp1142
(lp1143
V0.1
p1144
aV2016-10-16 05:09:38
p1145
as(g13
g14
tp1146
(lp1147
V987*900/893970
p1148
aV2016-10-16 08:03:42
p1149
as(g19
g4
tp1150
(lp1151
VC(52,5)-C(40,5)
p1152
aV2016-10-16 05:48:43
p1153
as(g24
g25
tp1154
(lp1155
V0.06*0.5
p1156
aV2016-10-16 07:37:07
p1157
as(g14
g24
tp1158
(lp1159
V95/(95+2*9999)
p1160
aV2016-10-16 05:13:49
p1161
as(g25
g4
tp1162
(lp1163
V0.6
p1164
aV2016-10-16 02:40:26
p1165
as(g3
g38
tp1166
(lp1167
V15
p1168
aV2016-10-16 05:33:07
p1169
as(g4
g14
tp1170
(lp1171
V0.1
p1172
aV2016-10-16 05:09:38
p1173
as(g38
g24
tp1174
(lp1175
V194/C(47,2)
p1176
aV2016-10-16 07:49:39
p1177
as(g4
g38
tp1178
(lp1179
V0.5
p1180
aV2016-10-16 05:09:38
p1181
as(g3
g25
tp1182
(lp1183
V13
p1184
aV2016-10-16 05:33:07
p1185
as(g19
g25
tp1186
(lp1187
VC(32,5)-C(20,5)
p1188
aV2016-10-16 05:48:43
p1189
as(g14
g14
tp1190
(lp1191
V95/1000000
p1192
aV2016-10-16 05:13:49
p1193
as(g38
g14
tp1194
(lp1195
VC(47,2)
p1196
aV2016-10-16 07:49:39
p1197
as(g3
g24
tp1198
(lp1199
V1
p1200
aV2016-10-16 05:33:07
p1201
as(g4
g19
tp1202
(lp1203
V1
p1204
aV2016-10-16 05:09:38
p1205
as(g24
g4
tp1206
(lp1207
V0.03*0.5+0.06*0.5
p1208
aV2016-10-16 07:37:07
p1209
as(g13
g25
tp1210
(lp1211
V3
p1212
aV2016-10-16 08:03:42
p1213
as(g25
g25
tp1214
(lp1215
V0.18
p1216
aV2016-10-16 02:40:26
p1217
as(g91
g25
tp1218
(lp1219
V32
p1220
aV2016-10-16 07:51:49
p1221
as(g14
g4
tp1222
(lp1223
V(95+2*9999)/1000000
p1224
aV2016-10-16 05:13:49
p1225
as(g38
g4
tp1226
(lp1227
V178
p1228
aV2016-10-16 07:49:39
p1229
as(g24
g14
tp1230
(lp1231
V2/3
p1232
aV2016-10-16 07:37:07
p1233
as(g91
g4
tp1234
(lp1235
V32/C(47,2)
p1236
aV2016-10-16 07:51:49
p1237
as(g3
g14
tp1238
(lp1239
VP(13,2)
p1240
aV2016-10-16 05:33:07
p1241
as(g4
g25
tp1242
(lp1243
V0.1
p1244
aV2016-10-16 05:09:38
p1245
as(g13
g4
tp1246
(lp1247
V987/990
p1248
aV2016-10-16 08:03:42
p1249
as(g14
g25
tp1250
(lp1251
V1/10000
p1252
aV2016-10-16 05:13:49
p1253
as(g19
g14
tp1254
(lp1255
V185872/1940952
p1256
aV2016-10-16 05:48:43
p1257
as(g3
g91
tp1258
(lp1259
V5/52
p1260
aV2016-10-16 05:33:07
p1261
as(g4
g91
tp1262
(lp1263
V0.1
p1264
aV2016-10-16 05:09:38
p1265
as(g4
g24
tp1266
(lp1267
V0.4
p1268
aV2016-10-16 05:09:38
p1269
as(g25
g14
tp1270
(lp1271
V0
p1272
aV2016-10-16 02:40:26
p1273
as(g38
g25
tp1274
(lp1275
V16
p1276
aV2016-10-16 07:49:39
p1277
assS'zow006'
p1278
(dp1279
(g3
g4
tp1280
(lp1281
V12
p1282
aV2016-10-18 00:16:47
p1283
as(g4
g4
tp1284
(lp1285
V0.35+0.4-0.55
p1286
aV2016-10-17 17:34:16
p1287
as(g13
g14
tp1288
(lp1289
V((C(47,2)-3)/C(47,2))^2
p1290
aV2016-10-18 00:09:42
p1291
as(g19
g4
tp1292
(lp1293
VC(52,5)-C(52-12,5)
p1294
aV2016-10-18 00:00:07
p1295
as(g24
g25
tp1296
(lp1297
V0.07*0.5
p1298
aV2016-10-17 17:48:21
p1299
as(g14
g24
tp1300
(lp1301
V(0.94*0.0001)/(0.94*0.0001+0.02*0.9999)
p1302
aV2016-10-17 17:44:13
p1303
as(g25
g4
tp1304
(lp1305
V0.05/0.5
p1306
aV2016-10-17 17:26:09
p1307
as(g3
g38
tp1308
(lp1309
V1+2+3+4+5+6+7+8
p1310
aV2016-10-18 00:16:47
p1311
as(g4
g14
tp1312
(lp1313
V0.35+0.4-0.55
p1314
aV2016-10-17 17:34:16
p1315
as(g38
g24
tp1316
(lp1317
V(4*4+C(47,2)-C(43,2))/C(47,2)
p1318
aV2016-10-17 22:29:15
p1319
as(g4
g38
tp1320
(lp1321
V0.2/0.35
p1322
aV2016-10-17 17:34:16
p1323
as(g3
g25
tp1324
(lp1325
V13
p1326
aV2016-10-18 00:16:47
p1327
as(g19
g25
tp1328
(lp1329
VC(52-20,5)-C(20,5)
p1330
aV2016-10-18 00:00:07
p1331
as(g14
g14
tp1332
(lp1333
V0.94*0.0001
p1334
aV2016-10-17 17:44:13
p1335
as(g38
g14
tp1336
(lp1337
VC(47,2)
p1338
aV2016-10-17 22:29:15
p1339
as(g3
g24
tp1340
(lp1341
V4
p1342
aV2016-10-18 00:16:47
p1343
as(g4
g19
tp1344
(lp1345
V(0.7-0.35-0.35-0.4+0.2+0.2+0.2)/0.2
p1346
aV2016-10-17 17:34:16
p1347
as(g24
g4
tp1348
(lp1349
V0.07*0.5+0.04*0.5
p1350
aV2016-10-17 17:48:21
p1351
as(g13
g25
tp1352
(lp1353
V3
p1354
aV2016-10-18 00:09:42
p1355
as(g25
g25
tp1356
(lp1357
V0.1+0.5-0.55
p1358
aV2016-10-17 17:26:09
p1359
as(g91
g25
tp1360
(lp1361
V4*8
p1362
aV2016-10-17 22:48:58
p1363
as(g14
g4
tp1364
(lp1365
V0.94*0.0001+0.02*0.9999
p1366
aV2016-10-17 17:44:13
p1367
as(g38
g4
tp1368
(lp1369
VC(47,2)-C(43,2)
p1370
aV2016-10-17 22:29:15
p1371
as(g24
g14
tp1372
(lp1373
V(0.07*0.5)/(0.07*0.5+0.04*0.5)
p1374
aV2016-10-17 17:48:21
p1375
as(g91
g4
tp1376
(lp1377
V4*8/C(47,2)
p1378
aV2016-10-17 22:48:58
p1379
as(g3
g14
tp1380
(lp1381
V13*12
p1382
aV2016-10-18 00:16:47
p1383
as(g4
g25
tp1384
(lp1385
V0.35+0.35-0.5
p1386
aV2016-10-17 17:34:16
p1387
as(g13
g4
tp1388
(lp1389
V(C(47,2)-3)/C(47,2)
p1390
aV2016-10-18 00:09:42
p1391
as(g14
g25
tp1392
(lp1393
V0.0001
p1394
aV2016-10-17 17:44:13
p1395
as(g19
g14
tp1396
(lp1397
V(C(52-20,5)-C(20,5))/(C(52,5)-C(52-12,5))
p1398
aV2016-10-18 00:00:07
p1399
as(g3
g91
tp1400
(lp1401
V36/(13*12)
p1402
aV2016-10-18 00:16:47
p1403
as(g4
g91
tp1404
(lp1405
V0.7-0.35-0.35-0.4+0.2+0.2+0.2
p1406
aV2016-10-17 17:34:16
p1407
as(g4
g24
tp1408
(lp1409
V0.2/0.35
p1410
aV2016-10-17 17:34:16
p1411
as(g25
g14
tp1412
(lp1413
V1
p1414
aV2016-10-17 17:26:09
p1415
as(g38
g25
tp1416
(lp1417
V4*4
p1418
aV2016-10-17 22:29:15
p1419
assS'thartopu'
p1420
(dp1421
(g4
g14
tp1422
(lp1423
V0.05
p1424
aV2016-10-16 02:55:46
p1425
as(g25
g25
tp1426
(lp1427
V0.4
p1428
aV2016-10-16 02:53:54
p1429
as(g4
g4
tp1430
(lp1431
V0.05
p1432
aV2016-10-16 02:55:46
p1433
as(g4
g25
tp1434
(lp1435
V0
p1436
aV2016-10-16 02:55:46
p1437
as(g4
g19
tp1438
(lp1439
V0
p1440
aV2016-10-16 02:55:46
p1441
as(g4
g91
tp1442
(lp1443
V0
p1444
aV2016-10-16 02:55:46
p1445
as(g25
g4
tp1446
(lp1447
V0.8
p1448
aV2016-10-16 02:53:54
p1449
as(g4
g38
tp1450
(lp1451
V0
p1452
aV2016-10-16 02:55:46
p1453
as(g25
g14
tp1454
(lp1455
V0
p1456
aV2016-10-16 02:53:54
p1457
as(g4
g24
tp1458
(lp1459
V0
p1460
aV2016-10-16 02:55:46
p1461
assS'tommyt1109'
p1462
(dp1463
(g4
g14
tp1464
(lp1465
V.15
p1466
aV2016-10-16 22:27:40
p1467
as(g25
g25
tp1468
(lp1469
V.2*.4
p1470
aV2016-10-16 22:00:21
p1471
as(g4
g4
tp1472
(lp1473
V.15
p1474
aV2016-10-16 22:27:40
p1475
as(g4
g25
tp1476
(lp1477
V.2
p1478
aV2016-10-16 22:27:40
p1479
as(g4
g38
tp1480
(lp1481
V.2/.3
p1482
aV2016-10-16 22:27:40
p1483
as(g25
g14
tp1484
(lp1485
V1
p1486
aV2016-10-16 22:00:21
p1487
as(g14
g25
tp1488
(lp1489
V1/10000
p1490
aV2016-10-16 22:33:41
p1491
as(g14
g4
tp1492
(lp1493
V(94/100)*(1/10000)+(1/100)*(9999/10000)
p1494
aV2016-10-16 22:33:41
p1495
as(g24
g25
tp1496
(lp1497
V.06*.5
p1498
aV2016-10-16 22:45:28
p1499
as(g14
g14
tp1500
(lp1501
V(94/100)*(1/10000)
p1502
aV2016-10-16 22:33:41
p1503
as(g4
g91
tp1504
(lp1505
V.15
p1506
aV2016-10-16 22:27:40
p1507
as(g14
g24
tp1508
(lp1509
V((94/100)*(1/10000))/((94/100)*(1/10000)+(1/100)*(9999/10000))
p1510
aV2016-10-16 22:33:41
p1511
as(g4
g24
tp1512
(lp1513
V.2/.35
p1514
aV2016-10-16 22:27:40
p1515
as(g24
g14
tp1516
(lp1517
V(.06*.5)/((.06*.5)+(.04*.5))
p1518
aV2016-10-16 22:45:28
p1519
as(g25
g4
tp1520
(lp1521
V.2
p1522
aV2016-10-16 22:00:21
p1523
as(g4
g19
tp1524
(lp1525
V1
p1526
aV2016-10-16 22:27:40
p1527
as(g24
g4
tp1528
(lp1529
V(.06*.5)+(.04*.5)
p1530
aV2016-10-16 22:45:28
p1531
assS'PriyankaK'
p1532
(dp1533
(g3
g4
tp1534
(lp1535
V12
p1536
aV2016-10-18 04:05:50
p1537
as(g4
g4
tp1538
(lp1539
V(0.3+0.25-0.4)
p1540
aV2016-10-17 01:47:50
p1541
as(g13
g14
tp1542
(lp1543
V(1-(3/C(45,2)))^2
p1544
aV2016-10-17 06:02:17
p1545
as(g19
g4
tp1546
(lp1547
VC(52,5)-C(40,5)
p1548
aV2016-10-17 02:35:42
p1549
as(g24
g25
tp1550
(lp1551
V(7/100)*(1/2)
p1552
aV2016-10-17 01:58:24
p1553
as(g14
g24
tp1554
(lp1555
V((93/100)*(1/10000))/(((93/100)*(1/10000))+((1/100)*(1-(1/10000))))
p1556
aV2016-10-17 05:20:37
p1557
as(g25
g4
tp1558
(lp1559
V(0.3+0.3-0.51)/0.3
p1560
aV2016-10-17 01:34:42
p1561
as(g3
g38
tp1562
(lp1563
V1+2+3+4+5+6+7+8+9+10
p1564
aV2016-10-18 04:05:50
p1565
as(g4
g14
tp1566
(lp1567
V(0.3+0.25-0.4)
p1568
aV2016-10-17 01:47:50
p1569
as(g38
g24
tp1570
(lp1571
V((C(4,1)*C(4,1))+(C(47,2)-C(43,2)))/C(47,2)
p1572
aV2016-10-17 05:45:23
p1573
as(g4
g38
tp1574
(lp1575
V(0.3+0.3-0.45)/0.3
p1576
aV2016-10-17 01:47:50
p1577
as(g3
g25
tp1578
(lp1579
V13
p1580
aV2016-10-18 04:05:50
p1581
as(g19
g25
tp1582
(lp1583
VC(32,5)-C(20,5)
p1584
aV2016-10-17 02:35:42
p1585
as(g14
g14
tp1586
(lp1587
V(93/100)*(1/10000)
p1588
aV2016-10-17 05:20:37
p1589
as(g38
g14
tp1590
(lp1591
VC(47,2)
p1592
aV2016-10-17 05:45:23
p1593
as(g3
g24
tp1594
(lp1595
V4
p1596
aV2016-10-18 04:05:50
p1597
as(g4
g19
tp1598
(lp1599
V(0.6-0.25-0.3-0.3+(0.3+0.3-0.45)+(0.3+0.25-0.4)+(0.3+0.25-0.4))/(0.3+0.25-0.4)
p1600
aV2016-10-17 01:47:50
p1601
as(g24
g4
tp1602
(lp1603
V((7/100)*(1/2))+((4/100)*(1/2))
p1604
aV2016-10-17 01:58:24
p1605
as(g13
g25
tp1606
(lp1607
V3
p1608
aV2016-10-17 06:02:17
p1609
as(g25
g25
tp1610
(lp1611
V(0.3+0.3-0.51)
p1612
aV2016-10-17 01:34:42
p1613
as(g91
g25
tp1614
(lp1615
VC(4,1)*C(8,1)
p1616
aV2016-10-17 02:21:24
p1617
as(g14
g4
tp1618
(lp1619
V((93/100)*(1/10000))+((1/100)*(1-(1/10000)))
p1620
aV2016-10-17 05:20:37
p1621
as(g38
g4
tp1622
(lp1623
VC(47,2)-C(43,2)
p1624
aV2016-10-17 05:45:23
p1625
as(g24
g14
tp1626
(lp1627
V((7/100)*(1/2))/(((7/100)*(1/2))+((4/100)*(1/2)))
p1628
aV2016-10-17 01:58:24
p1629
as(g91
g4
tp1630
(lp1631
V(C(4,1)*C(8,1))/C(47,2)
p1632
aV2016-10-17 02:21:24
p1633
as(g3
g14
tp1634
(lp1635
V13*12
p1636
aV2016-10-18 04:05:50
p1637
as(g4
g25
tp1638
(lp1639
V(0.3+0.3-0.45)
p1640
aV2016-10-17 01:47:50
p1641
as(g13
g4
tp1642
(lp1643
V1-(3/C(45,2))
p1644
aV2016-10-17 06:02:17
p1645
as(g14
g25
tp1646
(lp1647
V1/10000
p1648
aV2016-10-17 05:20:37
p1649
as(g19
g14
tp1650
(lp1651
V(C(32,5)-C(20,5))/(C(52,5)-C(40,5))
p1652
aV2016-10-17 02:35:42
p1653
as(g3
g91
tp1654
(lp1655
V55/156
p1656
aV2016-10-18 04:05:50
p1657
as(g4
g91
tp1658
(lp1659
V0.6-0.25-0.3-0.3+(0.3+0.3-0.45)+(0.3+0.25-0.4)+(0.3+0.25-0.4)
p1660
aV2016-10-17 01:47:50
p1661
as(g4
g24
tp1662
(lp1663
V(0.3+0.3-0.45)/0.3
p1664
aV2016-10-17 01:47:50
p1665
as(g25
g14
tp1666
(lp1667
V1
p1668
aV2016-10-17 01:34:42
p1669
as(g38
g25
tp1670
(lp1671
VC(4,1)*C(4,1)
p1672
aV2016-10-17 05:45:23
p1673
assS'bfalk'
p1674
(dp1675
(g91
g4
tp1676
(lp1677
V(C(4,1) * C(8,1)) / (C(52-5,2))
p1678
aV2016-10-17 22:19:41
p1679
as(g4
g14
tp1680
(lp1681
V(0.3 + 0.25) - 0.45
p1682
aV2016-10-17 20:17:58
p1683
as(g4
g91
tp1684
(lp1685
V0.55 - 0.3 - 0.3 - 0.25 + (0.3 + 0.3) - 0.45 + (0.3 + 0.25) - 0.45 + (0.3 + 0.25) - 0.45
p1686
aV2016-10-17 20:17:58
p1687
as(g91
g25
tp1688
(lp1689
VC(4,1) * C(8,1)
p1690
aV2016-10-17 22:19:41
p1691
as(g4
g4
tp1692
(lp1693
V(0.3 + 0.25) - 0.45
p1694
aV2016-10-17 20:17:58
p1695
as(g4
g25
tp1696
(lp1697
V(0.3 + 0.3) - 0.45
p1698
aV2016-10-17 20:17:58
p1699
as(g4
g38
tp1700
(lp1701
V((0.3 + 0.3) - 0.45) / 0.3
p1702
aV2016-10-17 20:17:58
p1703
as(g25
g25
tp1704
(lp1705
V(0.5 + 0.3) - 0.65
p1706
aV2016-10-17 19:44:34
p1707
as(g14
g25
tp1708
(lp1709
V1/10000
p1710
aV2016-10-17 20:42:24
p1711
as(g19
g14
tp1712
(lp1713
V() / (C(52,5) - C(52-(3*4),5))
p1714
aV2016-10-17 23:43:46
p1715
as(g14
g4
tp1716
(lp1717
V(94/100)*(1/10000)+(2/100)*(9999/10000)
p1718
aV2016-10-17 20:42:24
p1719
as(g24
g25
tp1720
(lp1721
V(0.07) * (0.5)
p1722
aV2016-10-17 21:01:18
p1723
as(g14
g14
tp1724
(lp1725
V(94/100) * (1/10000)
p1726
aV2016-10-17 20:42:24
p1727
as(g25
g14
tp1728
(lp1729
V1
p1730
aV2016-10-17 19:44:34
p1731
as(g38
g14
tp1732
(lp1733
VC(52-5, 2)
p1734
aV2016-10-17 21:43:48
p1735
as(g14
g24
tp1736
(lp1737
V((94/100) * (1/10000)) / ((94/100)*(1/10000)+(2/100)*(9999/10000))
p1738
aV2016-10-17 20:42:24
p1739
as(g4
g24
tp1740
(lp1741
V((0.3 + 0.3) - 0.45) / 0.3
p1742
aV2016-10-17 20:17:58
p1743
as(g24
g14
tp1744
(lp1745
V((0.07) * (0.5)) / ((0.07) * (0.5) + (0.04) * (0.5))
p1746
aV2016-10-17 21:01:18
p1747
as(g25
g4
tp1748
(lp1749
V((0.5 + 0.3) - 0.65)/0.3
p1750
aV2016-10-17 19:44:34
p1751
as(g4
g19
tp1752
(lp1753
V(0.55 - 0.3 - 0.3 - 0.25 + (0.3 + 0.3) - 0.45 + (0.3 + 0.25) - 0.45 + (0.3 + 0.25) - 0.45) / ((0.3 + 0.25) - 0.45)
p1754
aV2016-10-17 20:17:58
p1755
as(g24
g4
tp1756
(lp1757
V(0.07) * (0.5) + (0.04) * (0.5)
p1758
aV2016-10-17 21:01:18
p1759
assS'dillonliu'
p1760
(dp1761
(g3
g4
tp1762
(lp1763
V13
p1764
aV2016-10-18 05:05:26
p1765
as(g4
g4
tp1766
(lp1767
V0.15
p1768
aV2016-10-18 03:21:14
p1769
as(g13
g14
tp1770
(lp1771
V1 - 3/C(45,2) - 3/C(45,2)
p1772
aV2016-10-18 04:45:05
p1773
as(g19
g4
tp1774
(lp1775
VC(52,5)-C(40,5) 
p1776
aV2016-10-18 04:40:43
p1777
as(g24
g25
tp1778
(lp1779
V0.5*0.06
p1780
aV2016-10-18 03:31:24
p1781
as(g14
g24
tp1782
(lp1783
V0.93*(1/10000)/(0.93*(1/10000)+0.01*(9999/10000))
p1784
aV2016-10-18 03:28:27
p1785
as(g25
g4
tp1786
(lp1787
V1/5
p1788
aV2016-10-18 02:59:57
p1789
as(g3
g38
tp1790
(lp1791
V7+6+5+4+3+2+1
p1792
aV2016-10-18 05:05:26
p1793
as(g4
g14
tp1794
(lp1795
V0.15
p1796
aV2016-10-18 03:21:14
p1797
as(g38
g24
tp1798
(lp1799
V(16 + 4*43 + C(4,2))/C(47,2)
p1800
aV2016-10-18 04:13:05
p1801
as(g4
g38
tp1802
(lp1803
V0.15/0.35
p1804
aV2016-10-18 03:21:14
p1805
as(g3
g25
tp1806
(lp1807
V14
p1808
aV2016-10-18 05:05:26
p1809
as(g19
g25
tp1810
(lp1811
VC(32,5)-C(20,5) 
p1812
aV2016-10-18 04:40:43
p1813
as(g14
g14
tp1814
(lp1815
V0.93*(1/10000)
p1816
aV2016-10-18 03:28:27
p1817
as(g38
g14
tp1818
(lp1819
VC(47,2)
p1820
aV2016-10-18 04:13:05
p1821
as(g3
g24
tp1822
(lp1823
V2
p1824
aV2016-10-18 05:05:26
p1825
as(g4
g19
tp1826
(lp1827
V(0.65-0.35-0.3-0.3+0.15+0.15+0.15)/(0.15)
p1828
aV2016-10-18 03:21:14
p1829
as(g24
g4
tp1830
(lp1831
V(0.03+0.02)
p1832
aV2016-10-18 03:31:24
p1833
as(g13
g25
tp1834
(lp1835
V3
p1836
aV2016-10-18 04:45:05
p1837
as(g25
g25
tp1838
(lp1839
V0.1
p1840
aV2016-10-18 02:59:57
p1841
as(g91
g25
tp1842
(lp1843
V4*4 + 4*4
p1844
aV2016-10-18 03:57:29
p1845
as(g14
g4
tp1846
(lp1847
V0.93*(1/10000) + 0.01*(9999/10000)
p1848
aV2016-10-18 03:28:27
p1849
as(g38
g4
tp1850
(lp1851
V4*43 + C(4,2)
p1852
aV2016-10-18 04:13:05
p1853
as(g24
g14
tp1854
(lp1855
V0.03/(0.05)
p1856
aV2016-10-18 03:31:24
p1857
as(g91
g4
tp1858
(lp1859
V(4*4 + 4*4)/C(47,2)
p1860
aV2016-10-18 03:57:29
p1861
as(g3
g14
tp1862
(lp1863
V14*13
p1864
aV2016-10-18 05:05:26
p1865
as(g4
g25
tp1866
(lp1867
V0.15
p1868
aV2016-10-18 03:21:14
p1869
as(g13
g4
tp1870
(lp1871
V1 - 3/C(45,2)
p1872
aV2016-10-18 04:45:05
p1873
as(g14
g25
tp1874
(lp1875
V1/10000
p1876
aV2016-10-18 03:28:27
p1877
as(g19
g14
tp1878
(lp1879
V(C(32,5)-C(20,5) )/(C(52,5)-C(40,5) )
p1880
aV2016-10-18 04:40:43
p1881
as(g3
g91
tp1882
(lp1883
V(7+6+5+4+3+2+1)/(14*13)
p1884
aV2016-10-18 05:05:26
p1885
as(g4
g91
tp1886
(lp1887
V0.65 - 0.35 - 0.3 - 0.3 + 0.15 + 0.15 + 0.15 
p1888
aV2016-10-18 03:21:14
p1889
as(g4
g24
tp1890
(lp1891
V0.15/0.3
p1892
aV2016-10-18 03:21:14
p1893
as(g25
g14
tp1894
(lp1895
V1
p1896
aV2016-10-18 02:59:57
p1897
as(g38
g25
tp1898
(lp1899
V16
p1900
aV2016-10-18 04:13:05
p1901
assS'TianhaoQiu'
p1902
(dp1903
(g4
g14
tp1904
(lp1905
V(0.25+0.2-0.35)
p1906
aV2016-10-17 16:49:38
p1907
as(g25
g25
tp1908
(lp1909
V0.5+0.1-0.55
p1910
aV2016-10-17 16:39:16
p1911
as(g4
g4
tp1912
(lp1913
V(0.2+0.2-0.3)
p1914
aV2016-10-17 16:49:38
p1915
as(g4
g25
tp1916
(lp1917
V(0.25+0.2-0.35)
p1918
aV2016-10-17 16:49:38
p1919
as(g4
g19
tp1920
(lp1921
V(0.5-0.25-0.2-0.2+(0.25+0.2-0.35)+(0.2+0.2-0.3)+(0.25+0.2-0.35))/(0.2+0.2-0.3)
p1922
aV2016-10-17 16:49:38
p1923
as(g4
g91
tp1924
(lp1925
V0.5-0.25-0.2-0.2+(0.25+0.2-0.35)+(0.2+0.2-0.3)+(0.25+0.2-0.35)
p1926
aV2016-10-17 16:49:38
p1927
as(g25
g4
tp1928
(lp1929
V(0.5+0.1-0.55)/0.1
p1930
aV2016-10-17 16:39:16
p1931
as(g4
g38
tp1932
(lp1933
V(0.25+0.2-0.35)/0.25
p1934
aV2016-10-17 16:49:38
p1935
as(g25
g14
tp1936
(lp1937
V1
p1938
aV2016-10-17 16:39:16
p1939
as(g4
g24
tp1940
(lp1941
V(0.25+0.2-0.35)/0.2
p1942
aV2016-10-17 16:49:38
p1943
assS'migil'
p1944
(dp1945
(g4
g14
tp1946
(lp1947
V0.1
p1948
aV2016-10-16 06:15:22
p1949
as(g25
g25
tp1950
(lp1951
V0.1
p1952
aV2016-10-16 05:58:20
p1953
as(g4
g4
tp1954
(lp1955
V0.1
p1956
aV2016-10-16 06:15:22
p1957
as(g4
g25
tp1958
(lp1959
V0.1
p1960
aV2016-10-16 06:15:22
p1961
as(g4
g38
tp1962
(lp1963
V0.4
p1964
aV2016-10-16 06:15:22
p1965
as(g25
g14
tp1966
(lp1967
V1
p1968
aV2016-10-16 05:58:20
p1969
as(g14
g25
tp1970
(lp1971
V0.0001
p1972
aV2016-10-16 07:07:16
p1973
as(g14
g4
tp1974
(lp1975
V0.0200931
p1976
aV2016-10-16 07:07:16
p1977
as(g24
g25
tp1978
(lp1979
V0.035
p1980
aV2016-10-16 07:19:12
p1981
as(g14
g14
tp1982
(lp1983
V0.000095
p1984
aV2016-10-16 07:07:16
p1985
as(g4
g91
tp1986
(lp1987
V0.15
p1988
aV2016-10-16 06:15:22
p1989
as(g14
g24
tp1990
(lp1991
V0.00472799
p1992
aV2016-10-16 07:07:16
p1993
as(g4
g24
tp1994
(lp1995
V0.5
p1996
aV2016-10-16 06:15:22
p1997
as(g24
g14
tp1998
(lp1999
V0.63636
p2000
aV2016-10-16 07:19:12
p2001
as(g25
g4
tp2002
(lp2003
V0.5
p2004
aV2016-10-16 05:58:20
p2005
as(g4
g19
tp2006
(lp2007
V1.5
p2008
aV2016-10-16 06:15:22
p2009
as(g24
g4
tp2010
(lp2011
V0.055
p2012
aV2016-10-16 07:19:12
p2013
assS'URajkumar'
p2014
(dp2015
(g4
g4
tp2016
(lp2017
V0.15
p2018
aV2016-10-18 20:37:15
p2019
as(g19
g4
tp2020
(lp2021
VC(52,5) - C(40,5)
p2022
aV2016-10-18 21:55:38
p2023
as(g24
g25
tp2024
(lp2025
V0.07*0.5
p2026
aV2016-10-18 21:09:18
p2027
as(g14
g24
tp2028
(lp2029
V(0.94*(10^(-4)))/(0.94*10^(-4) + 0.02*(1-10^(-4)))
p2030
aV2016-10-18 20:57:03
p2031
as(g25
g4
tp2032
(lp2033
V(0.1*0.5)/(0.5)
p2034
aV2016-10-18 20:01:37
p2035
as(g4
g14
tp2036
(lp2037
V0.15
p2038
aV2016-10-18 20:37:15
p2039
as(g38
g24
tp2040
(lp2041
V(16 + (C(47,2) - C(43,2)))/C(47,2)
p2042
aV2016-10-18 21:31:22
p2043
as(g24
g14
tp2044
(lp2045
V(0.07*0.5)/((0.07*0.5) + (0.04*0.5))
p2046
aV2016-10-18 21:09:18
p2047
as(g19
g25
tp2048
(lp2049
V(C(32,5) - C(20,5))
p2050
aV2016-10-18 21:55:38
p2051
as(g14
g14
tp2052
(lp2053
V0.94*(10^(-4))
p2054
aV2016-10-18 20:57:03
p2055
as(g38
g14
tp2056
(lp2057
VC(47,2)
p2058
aV2016-10-18 21:31:22
p2059
as(g4
g19
tp2060
(lp2061
V0.1/0.15
p2062
aV2016-10-18 20:37:15
p2063
as(g4
g24
tp2064
(lp2065
V0.15/0.3
p2066
aV2016-10-18 20:37:15
p2067
as(g25
g25
tp2068
(lp2069
V0.05
p2070
aV2016-10-18 20:01:37
p2071
as(g91
g25
tp2072
(lp2073
V4*8
p2074
aV2016-10-18 21:45:14
p2075
as(g14
g4
tp2076
(lp2077
V0.94*10^(-4) + 0.02*(1-10^(-4))
p2078
aV2016-10-18 20:57:03
p2079
as(g38
g4
tp2080
(lp2081
VC(47,2) - C(43,2)
p2082
aV2016-10-18 21:31:22
p2083
as(g4
g38
tp2084
(lp2085
V0.15/0.3
p2086
aV2016-10-18 20:37:15
p2087
as(g91
g4
tp2088
(lp2089
V4*8 / C(47,2)
p2090
aV2016-10-18 21:45:14
p2091
as(g4
g25
tp2092
(lp2093
V0.15
p2094
aV2016-10-18 20:37:15
p2095
as(g13
g4
tp2096
(lp2097
VC(45,  2) - 3
p2098
aV2016-10-18 23:38:43
p2099
as(g14
g25
tp2100
(lp2101
V10^(-4)
p2102
aV2016-10-18 20:57:03
p2103
as(g19
g14
tp2104
(lp2105
V(C(32,5) - C(20,5))/(C(52,5) - C(40,5))
p2106
aV2016-10-18 21:55:38
p2107
as(g4
g91
tp2108
(lp2109
V0.1
p2110
aV2016-10-18 20:37:15
p2111
as(g24
g4
tp2112
(lp2113
V(0.07*0.5) + (0.04*0.5)
p2114
aV2016-10-18 21:09:18
p2115
as(g25
g14
tp2116
(lp2117
V1
p2118
aV2016-10-18 20:01:37
p2119
as(g38
g25
tp2120
(lp2121
V16
p2122
aV2016-10-18 21:31:22
p2123
assS'Ken_Truong'
p2124
(dp2125
(g3
g4
tp2126
(lp2127
V13
p2128
aV2016-10-16 13:13:05
p2129
as(g4
g4
tp2130
(lp2131
V0.55 - 0.45
p2132
aV2016-10-16 08:34:16
p2133
as(g13
g14
tp2134
(lp2135
V(1 - ( 3 / C(45,2))) * (1 - ( 3 / C(43,2)))
p2136
aV2016-10-16 12:56:27
p2137
as(g19
g4
tp2138
(lp2139
VC(52,5) - C(40,5)
p2140
aV2016-10-16 13:19:24
p2141
as(g24
g25
tp2142
(lp2143
V0.07 * 0.5
p2144
aV2016-10-16 09:27:38
p2145
as(g14
g24
tp2146
(lp2147
V93/100 * 1/10000 / ((93/100) * (1/10000) + (1/100)*(9999/10000))
p2148
aV2016-10-16 09:20:39
p2149
as(g25
g4
tp2150
(lp2151
V0.02 / 0.1
p2152
aV2016-10-16 07:46:44
p2153
as(g3
g38
tp2154
(lp2155
V28
p2156
aV2016-10-16 13:13:05
p2157
as(g4
g14
tp2158
(lp2159
V0.5 - 0.4
p2160
aV2016-10-16 08:34:16
p2161
as(g38
g24
tp2162
(lp2163
V194/C(47,2)
p2164
aV2016-10-16 11:13:46
p2165
as(g4
g38
tp2166
(lp2167
V0.10 / 0.25
p2168
aV2016-10-16 08:34:16
p2169
as(g3
g25
tp2170
(lp2171
V14
p2172
aV2016-10-16 13:13:05
p2173
as(g19
g25
tp2174
(lp2175
VC(32,5) - C(20,5)
p2176
aV2016-10-16 13:19:24
p2177
as(g14
g14
tp2178
(lp2179
V93/100 * 1/10000
p2180
aV2016-10-16 09:20:39
p2181
as(g38
g14
tp2182
(lp2183
VC(47,2)
p2184
aV2016-10-16 11:13:46
p2185
as(g3
g24
tp2186
(lp2187
V1
p2188
aV2016-10-16 13:13:05
p2189
as(g4
g19
tp2190
(lp2191
V0.1 / 0.1
p2192
aV2016-10-16 08:34:16
p2193
as(g24
g4
tp2194
(lp2195
V0.07*0.5 + 0.03*0.5
p2196
aV2016-10-16 09:27:38
p2197
as(g13
g25
tp2198
(lp2199
V3
p2200
aV2016-10-16 12:56:27
p2201
as(g25
g25
tp2202
(lp2203
V0.02
p2204
aV2016-10-16 07:46:44
p2205
as(g91
g25
tp2206
(lp2207
V32
p2208
aV2016-10-16 10:31:10
p2209
as(g14
g4
tp2210
(lp2211
V(93/100) * (1/10000) + (1/100)*(9999/10000)
p2212
aV2016-10-16 09:20:39
p2213
as(g38
g4
tp2214
(lp2215
V178
p2216
aV2016-10-16 11:13:46
p2217
as(g24
g14
tp2218
(lp2219
V(0.07*0.5)/(0.07*0.5 + 0.03*0.5)
p2220
aV2016-10-16 09:27:38
p2221
as(g91
g4
tp2222
(lp2223
V32 / C(47,2)
p2224
aV2016-10-16 10:31:10
p2225
as(g3
g14
tp2226
(lp2227
V182
p2228
aV2016-10-16 13:13:05
p2229
as(g4
g25
tp2230
(lp2231
V0.55 - 0.45
p2232
aV2016-10-16 08:34:16
p2233
as(g13
g4
tp2234
(lp2235
V1 - ( 3 / C(45,2))
p2236
aV2016-10-16 12:56:27
p2237
as(g14
g25
tp2238
(lp2239
V1/10000
p2240
aV2016-10-16 09:20:39
p2241
as(g19
g14
tp2242
(lp2243
V(C(32,5) - C(20,5)) / (C(52,5) - C(40,5))
p2244
aV2016-10-16 13:19:24
p2245
as(g3
g91
tp2246
(lp2247
V28/182
p2248
aV2016-10-16 13:13:05
p2249
as(g4
g91
tp2250
(lp2251
V0.1
p2252
aV2016-10-16 08:34:16
p2253
as(g4
g24
tp2254
(lp2255
V0.10 / 0.3
p2256
aV2016-10-16 08:34:16
p2257
as(g25
g14
tp2258
(lp2259
V0
p2260
aV2016-10-16 07:46:44
p2261
as(g38
g25
tp2262
(lp2263
V16
p2264
aV2016-10-16 11:13:46
p2265
assS'sokunev'
p2266
(dp2267
(g25
g4
tp2268
(lp2269
V(.6 -.55)/.1
p2270
aV2016-10-18 19:26:55
p2271
as(g25
g25
tp2272
(lp2273
V.6 - .55
p2274
aV2016-10-18 19:26:55
p2275
as(g25
g14
tp2276
(lp2277
V1
p2278
aV2016-10-18 19:26:55
p2279
assS'CheyennePayne'
p2280
(dp2281
(g4
g14
tp2282
(lp2283
V0.25+0.25-0.4
p2284
aV2016-10-18 06:58:29
p2285
as(g25
g25
tp2286
(lp2287
V0.2
p2288
aV2016-10-18 06:45:32
p2289
as(g4
g4
tp2290
(lp2291
V0.3+0.25-0.45
p2292
aV2016-10-18 06:58:29
p2293
as(g4
g25
tp2294
(lp2295
V0.25+0.3-0.4
p2296
aV2016-10-18 06:58:29
p2297
as(g4
g38
tp2298
(lp2299
V(0.25+0.3-0.4)/0.25
p2300
aV2016-10-18 06:58:29
p2301
as(g25
g14
tp2302
(lp2303
V1
p2304
aV2016-10-18 06:45:32
p2305
as(g14
g25
tp2306
(lp2307
V0.0001
p2308
aV2016-10-18 07:16:58
p2309
as(g14
g4
tp2310
(lp2311
V(0.92*0.0001)+(0.02*0.9999)
p2312
aV2016-10-18 07:16:58
p2313
as(g24
g25
tp2314
(lp2315
V0.07*0.5
p2316
aV2016-10-18 07:22:17
p2317
as(g14
g14
tp2318
(lp2319
V0.92*0.0001
p2320
aV2016-10-18 07:16:58
p2321
as(g4
g91
tp2322
(lp2323
V0.5+0.25+0.3-0.4+0.3+0.25-0.45+0.25+0.25-0.4-0.25-0.3-0.25
p2324
aV2016-10-18 06:58:29
p2325
as(g14
g24
tp2326
(lp2327
V(0.92*0.0001)/((0.92*0.0001)+(0.02*0.9999))
p2328
aV2016-10-18 07:16:58
p2329
as(g4
g24
tp2330
(lp2331
V(0.25+0.3-0.4)/0.3
p2332
aV2016-10-18 06:58:29
p2333
as(g24
g14
tp2334
(lp2335
V(0.07*0.5)/((0.07*0.5)+(0.03*0.5))
p2336
aV2016-10-18 07:22:17
p2337
as(g25
g4
tp2338
(lp2339
V0.4
p2340
aV2016-10-18 06:45:32
p2341
as(g4
g19
tp2342
(lp2343
V(0.5+0.25+0.3-0.4+0.3+0.25-0.45+0.25+0.25-0.4-0.25-0.3-0.25)/(0.3+0.25-0.45)
p2344
aV2016-10-18 06:58:29
p2345
as(g24
g4
tp2346
(lp2347
V(0.07*0.5)+(0.03*0.5)
p2348
aV2016-10-18 07:22:17
p2349
assS'brandon_vo'
p2350
(dp2351
(g4
g14
tp2352
(lp2353
V0.15
p2354
aV2016-10-18 01:37:28
p2355
as(g25
g25
tp2356
(lp2357
V0.04
p2358
aV2016-10-18 01:20:11
p2359
as(g4
g4
tp2360
(lp2361
V0.15
p2362
aV2016-10-18 01:37:28
p2363
as(g4
g25
tp2364
(lp2365
V0.15
p2366
aV2016-10-18 01:37:28
p2367
as(g4
g38
tp2368
(lp2369
V0.15/0.35
p2370
aV2016-10-18 01:37:28
p2371
as(g25
g14
tp2372
(lp2373
V1
p2374
aV2016-10-18 01:20:11
p2375
as(g14
g25
tp2376
(lp2377
V1/10000
p2378
aV2016-10-18 21:26:44
p2379
as(g14
g4
tp2380
(lp2381
V0.010093
p2382
aV2016-10-18 21:26:44
p2383
as(g4
g24
tp2384
(lp2385
V0.15/0.3
p2386
aV2016-10-18 01:37:28
p2387
as(g24
g25
tp2388
(lp2389
V0.035
p2390
aV2016-10-18 21:29:18
p2391
as(g14
g14
tp2392
(lp2393
V0.000094
p2394
aV2016-10-18 21:26:44
p2395
as(g4
g91
tp2396
(lp2397
V0.2
p2398
aV2016-10-18 01:37:28
p2399
as(g14
g24
tp2400
(lp2401
V0.000094/0.010093
p2402
aV2016-10-18 21:26:44
p2403
as(g38
g25
tp2404
(lp2405
VC(13,2)*C(4,1)*C(4,1)*C(47,2)
p2406
aV2016-10-18 22:10:51
p2407
as(g24
g14
tp2408
(lp2409
V0.035/0.055
p2410
aV2016-10-18 21:29:18
p2411
as(g25
g4
tp2412
(lp2413
V0.04/0.1
p2414
aV2016-10-18 01:20:11
p2415
as(g4
g19
tp2416
(lp2417
V0.2/0.15
p2418
aV2016-10-18 01:37:28
p2419
as(g24
g4
tp2420
(lp2421
V0.055
p2422
aV2016-10-18 21:29:18
p2423
assS'YuqinWu'
p2424
(dp2425
(g3
g4
tp2426
(lp2427
V12
p2428
aV2016-10-16 21:59:48
p2429
as(g4
g4
tp2430
(lp2431
V0.1
p2432
aV2016-10-16 20:58:10
p2433
as(g13
g14
tp2434
(lp2435
V1- 6/C(45, 2)
p2436
aV2016-10-16 22:07:08
p2437
as(g19
g4
tp2438
(lp2439
VC(52, 5)-C(40, 5)
p2440
aV2016-10-16 21:43:36
p2441
as(g24
g25
tp2442
(lp2443
V0.06*0.5
p2444
aV2016-10-16 21:13:35
p2445
as(g14
g24
tp2446
(lp2447
V1/10000*0.93/(0.93/10000+0.02*9999/10000)
p2448
aV2016-10-16 21:09:16
p2449
as(g25
g4
tp2450
(lp2451
V0.5
p2452
aV2016-10-16 20:50:26
p2453
as(g3
g38
tp2454
(lp2455
V4*7
p2456
aV2016-10-16 21:59:48
p2457
as(g4
g14
tp2458
(lp2459
V0.1
p2460
aV2016-10-16 20:58:10
p2461
as(g38
g24
tp2462
(lp2463
V(16+C(47, 2)-C(43, 2))/C(47, 2)
p2464
aV2016-10-16 21:25:48
p2465
as(g4
g38
tp2466
(lp2467
V0.5
p2468
aV2016-10-16 20:58:10
p2469
as(g3
g25
tp2470
(lp2471
V13
p2472
aV2016-10-16 21:59:48
p2473
as(g19
g25
tp2474
(lp2475
VC(32, 5)-C(20, 5)
p2476
aV2016-10-16 21:43:36
p2477
as(g14
g14
tp2478
(lp2479
V1/10000*0.93
p2480
aV2016-10-16 21:09:16
p2481
as(g38
g14
tp2482
(lp2483
VC(47, 2)
p2484
aV2016-10-16 21:25:48
p2485
as(g3
g24
tp2486
(lp2487
V4
p2488
aV2016-10-16 21:59:48
p2489
as(g4
g19
tp2490
(lp2491
V1
p2492
aV2016-10-16 20:58:10
p2493
as(g24
g4
tp2494
(lp2495
V0.1*0.5
p2496
aV2016-10-16 21:13:35
p2497
as(g13
g25
tp2498
(lp2499
V3
p2500
aV2016-10-16 22:07:08
p2501
as(g25
g25
tp2502
(lp2503
V0.2
p2504
aV2016-10-16 20:50:26
p2505
as(g91
g25
tp2506
(lp2507
V4*8
p2508
aV2016-10-16 21:29:07
p2509
as(g14
g4
tp2510
(lp2511
V0.93/10000+0.02*9999/10000
p2512
aV2016-10-16 21:09:16
p2513
as(g38
g4
tp2514
(lp2515
VC(47, 2)-C(43, 2)
p2516
aV2016-10-16 21:25:48
p2517
as(g24
g14
tp2518
(lp2519
V0.06/0.1
p2520
aV2016-10-16 21:13:35
p2521
as(g91
g4
tp2522
(lp2523
V32/C(47,2)
p2524
aV2016-10-16 21:29:07
p2525
as(g3
g14
tp2526
(lp2527
V13*12
p2528
aV2016-10-16 21:59:48
p2529
as(g4
g25
tp2530
(lp2531
V0.15
p2532
aV2016-10-16 20:58:10
p2533
as(g13
g4
tp2534
(lp2535
V1 - 3/C(45, 2)
p2536
aV2016-10-16 22:07:08
p2537
as(g14
g25
tp2538
(lp2539
V1/10000
p2540
aV2016-10-16 21:09:16
p2541
as(g19
g14
tp2542
(lp2543
V(C(32, 5)-C(20, 5))/(C(52, 5)-C(40, 5))
p2544
aV2016-10-16 21:43:36
p2545
as(g3
g91
tp2546
(lp2547
V28/(13*12)
p2548
aV2016-10-16 21:59:48
p2549
as(g4
g91
tp2550
(lp2551
V0.1
p2552
aV2016-10-16 20:58:10
p2553
as(g4
g24
tp2554
(lp2555
V0.15/0.25
p2556
aV2016-10-16 20:58:10
p2557
as(g25
g14
tp2558
(lp2559
V1
p2560
aV2016-10-16 20:50:26
p2561
as(g38
g25
tp2562
(lp2563
V16
p2564
aV2016-10-16 21:25:48
p2565
assS'kmesic'
p2566
(dp2567
(g3
g4
tp2568
(lp2569
V11
p2570
aV2016-10-18 02:48:15
p2571
as(g4
g4
tp2572
(lp2573
V(0.35+0.35)-0.5
p2574
aV2016-10-16 08:52:23
p2575
as(g13
g14
tp2576
(lp2577
V1 - (3/C(45,2) + 2/C(43,2))
p2578
aV2016-10-18 02:37:19
p2579
as(g19
g4
tp2580
(lp2581
VC(52,5) - C(40, 5)
p2582
aV2016-10-17 23:20:14
p2583
as(g24
g25
tp2584
(lp2585
V0.07 * 0.5
p2586
aV2016-10-16 09:02:44
p2587
as(g14
g24
tp2588
(lp2589
V(92/100 * 1/10000)/((1/10000 * 92/100) + (2/100 * 9999/10000))
p2590
aV2016-10-16 08:58:48
p2591
as(g25
g4
tp2592
(lp2593
V(((0.2) + (0.2))-0.36)/0.2
p2594
aV2016-10-16 08:44:11
p2595
as(g3
g38
tp2596
(lp2597
V1 + 2 + 3 + 4 + 5 + 6
p2598
aV2016-10-18 02:48:15
p2599
as(g4
g14
tp2600
(lp2601
V(0.4 + 0.35)-0.55
p2602
aV2016-10-16 08:52:23
p2603
as(g38
g24
tp2604
(lp2605
V(C(47,2) - C(43,2) + 16)/C(47,2)
p2606
aV2016-10-17 18:57:13
p2607
as(g4
g38
tp2608
(lp2609
V((0.4 + 0.35) - 0.55)/0.4
p2610
aV2016-10-16 08:52:23
p2611
as(g3
g25
tp2612
(lp2613
V12
p2614
aV2016-10-18 02:48:15
p2615
as(g19
g25
tp2616
(lp2617
VC(32, 5) - C(20,5)
p2618
aV2016-10-17 23:20:14
p2619
as(g14
g14
tp2620
(lp2621
V92/100 * 1/10000
p2622
aV2016-10-16 08:58:48
p2623
as(g38
g14
tp2624
(lp2625
VC(47,2)
p2626
aV2016-10-17 18:57:13
p2627
as(g3
g24
tp2628
(lp2629
V5
p2630
aV2016-10-18 02:48:15
p2631
as(g4
g19
tp2632
(lp2633
V(0.7 - (0.4 + 0.35 + 0.35) + ((0.4 + 0.35) - 0.55) + ((0.35+0.35)-0.5) + ((0.4 + 0.35)-0.55))/((0.35+0.35)-0.5)
p2634
aV2016-10-16 08:52:23
p2635
as(g24
g4
tp2636
(lp2637
V(0.07 *0.5) + (0.03*0.5)
p2638
aV2016-10-16 09:02:44
p2639
as(g13
g25
tp2640
(lp2641
V3
p2642
aV2016-10-18 02:37:19
p2643
as(g25
g25
tp2644
(lp2645
V((0.2) + (0.2))-0.36
p2646
aV2016-10-16 08:44:11
p2647
as(g91
g25
tp2648
(lp2649
V4*8
p2650
aV2016-10-17 22:46:03
p2651
as(g14
g4
tp2652
(lp2653
V(1/10000 * 92/100) + (2/100 * 9999/10000)
p2654
aV2016-10-16 08:58:48
p2655
as(g38
g4
tp2656
(lp2657
VC(47,2) - C(43,2)
p2658
aV2016-10-17 18:57:13
p2659
as(g24
g14
tp2660
(lp2661
V(0.07 * 0.5)/((0.07 *0.5) + (0.03*0.5))
p2662
aV2016-10-16 09:02:44
p2663
as(g91
g4
tp2664
(lp2665
V32/C(47, 2)
p2666
aV2016-10-17 22:46:03
p2667
as(g3
g14
tp2668
(lp2669
V12*11
p2670
aV2016-10-18 02:48:15
p2671
as(g4
g25
tp2672
(lp2673
V(0.4 + 0.35) - 0.55
p2674
aV2016-10-16 08:52:23
p2675
as(g13
g4
tp2676
(lp2677
V1 - (3/C(45,2))
p2678
aV2016-10-18 02:37:19
p2679
as(g14
g25
tp2680
(lp2681
V1/10000
p2682
aV2016-10-16 08:58:48
p2683
as(g19
g14
tp2684
(lp2685
V(C(32, 5) - C(20,5))/(C(52,5) - C(40, 5))
p2686
aV2016-10-17 23:20:14
p2687
as(g3
g91
tp2688
(lp2689
V(1 + 2 + 3 + 4 + 5 + 6)/(12*11)
p2690
aV2016-10-18 02:48:15
p2691
as(g4
g91
tp2692
(lp2693
V0.7 - (0.4 + 0.35 + 0.35) + ((0.4 + 0.35) - 0.55) + ((0.35+0.35)-0.5) + ((0.4 + 0.35)-0.55)
p2694
aV2016-10-16 08:52:23
p2695
as(g4
g24
tp2696
(lp2697
V((0.4 + 0.35) - 0.55)/0.35
p2698
aV2016-10-16 08:52:23
p2699
as(g25
g14
tp2700
(lp2701
V1
p2702
aV2016-10-16 08:44:11
p2703
as(g38
g25
tp2704
(lp2705
V(8*4)/2
p2706
aV2016-10-17 18:57:13
p2707
assS'pyae'
p2708
(dp2709
(g4
g14
tp2710
(lp2711
V0.3+0.3-0.45
p2712
aV2016-10-18 04:30:31
p2713
as(g25
g25
tp2714
(lp2715
V0.03
p2716
aV2016-10-18 04:13:49
p2717
as(g4
g4
tp2718
(lp2719
V0.25+0.3-0.4
p2720
aV2016-10-18 04:30:31
p2721
as(g4
g25
tp2722
(lp2723
V0.3+0.25-0.4
p2724
aV2016-10-18 04:30:31
p2725
as(g4
g38
tp2726
(lp2727
V(0.3+0.25-0.4)/0.3
p2728
aV2016-10-18 04:30:31
p2729
as(g25
g14
tp2730
(lp2731
V1
p2732
aV2016-10-18 04:13:49
p2733
as(g14
g25
tp2734
(lp2735
V1/10000
p2736
aV2016-10-18 04:51:36
p2737
as(g14
g4
tp2738
(lp2739
V10092/1000000
p2740
aV2016-10-18 04:51:36
p2741
as(g24
g25
tp2742
(lp2743
V0.035
p2744
aV2016-10-18 05:02:13
p2745
as(g14
g14
tp2746
(lp2747
V93/1000000
p2748
aV2016-10-18 04:51:36
p2749
as(g4
g91
tp2750
(lp2751
V0.3+0.25+0.3-0.4-0.4-0.45+0.6
p2752
aV2016-10-18 04:30:31
p2753
as(g14
g24
tp2754
(lp2755
V93/10092
p2756
aV2016-10-18 04:51:36
p2757
as(g4
g24
tp2758
(lp2759
V(0.3+0.25-0.4)/0.25
p2760
aV2016-10-18 04:30:31
p2761
as(g24
g14
tp2762
(lp2763
V0.035*20
p2764
aV2016-10-18 05:02:13
p2765
as(g25
g4
tp2766
(lp2767
V0.3
p2768
aV2016-10-18 04:13:49
p2769
as(g4
g19
tp2770
(lp2771
V(0.3+0.25+0.3-0.4-0.4-0.45+0.6)/(0.25+0.3-0.4)
p2772
aV2016-10-18 04:30:31
p2773
as(g24
g4
tp2774
(lp2775
V1/20
p2776
aV2016-10-18 05:02:13
p2777
assS'rleaton'
p2778
(dp2779
(g25
g25
tp2780
(lp2781
V.03
p2782
aV2016-10-18 00:06:49
p2783
as(g25
g14
tp2784
(lp2785
V1
p2786
aV2016-10-18 00:06:49
p2787
as(g14
g25
tp2788
(lp2789
V1/10000
p2790
aV2016-10-18 10:44:32
p2791
as(g14
g4
tp2792
(lp2793
V0.020091
p2794
aV2016-10-18 10:44:32
p2795
as(g14
g14
tp2796
(lp2797
V(1/10000 ) * (93/100)
p2798
aV2016-10-18 10:44:32
p2799
as(g14
g24
tp2800
(lp2801
V(1/10000 ) * (93/100) / 0.020091
p2802
aV2016-10-18 10:44:32
p2803
as(g25
g4
tp2804
(lp2805
V.3
p2806
aV2016-10-18 00:06:49
p2807
assS'aliqbal'
p2808
(dp2809
(g4
g14
tp2810
(lp2811
V0.3 + 0.3 - 0.4
p2812
aV2016-10-17 08:38:46
p2813
as(g25
g25
tp2814
(lp2815
V0.01
p2816
aV2016-10-17 06:58:29
p2817
as(g4
g4
tp2818
(lp2819
V0.3 + 0.3 - 0.4
p2820
aV2016-10-17 08:38:46
p2821
as(g4
g25
tp2822
(lp2823
V0.3 + 0.3 - 0.45
p2824
aV2016-10-17 08:38:46
p2825
as(g14
g25
tp2826
(lp2827
V1/10000
p2828
aV2016-10-17 11:27:34
p2829
as(g14
g4
tp2830
(lp2831
V97/100
p2832
aV2016-10-17 11:27:34
p2833
as(g4
g19
tp2834
(lp2835
V(0.3 + 0.3 + 0.3 - 0.45 - 0.4 - 0.4 + 0.6)/(0.3 + 0.3 - 0.4)
p2836
aV2016-10-17 08:38:46
p2837
as(g4
g91
tp2838
(lp2839
V0.3 + 0.3 + 0.3 - 0.45 - 0.4 - 0.4 + 0.6
p2840
aV2016-10-17 08:38:46
p2841
as(g25
g4
tp2842
(lp2843
V0.1
p2844
aV2016-10-17 06:58:29
p2845
as(g4
g38
tp2846
(lp2847
V(0.3 + 0.3 - 0.45)/0.3
p2848
aV2016-10-17 08:38:46
p2849
as(g25
g14
tp2850
(lp2851
V1
p2852
aV2016-10-17 06:58:29
p2853
as(g4
g24
tp2854
(lp2855
V(0.3 + 0.3 - 0.45)/(0.3)
p2856
aV2016-10-17 08:38:46
p2857
assS'QIQIWU'
p2858
(dp2859
(g3
g4
tp2860
(lp2861
V11
p2862
aV2016-10-18 02:44:45
p2863
as(g4
g4
tp2864
(lp2865
V(.3+.25)-.4
p2866
aV2016-10-17 17:54:41
p2867
as(g13
g14
tp2868
(lp2869
V(1-3/C(45,2))*(1-3/C(43,2))
p2870
aV2016-10-18 01:03:04
p2871
as(g19
g4
tp2872
(lp2873
VC(52,5)-C(40,5)
p2874
aV2016-10-18 00:50:16
p2875
as(g24
g25
tp2876
(lp2877
V0.07*.5
p2878
aV2016-10-18 07:33:59
p2879
as(g14
g24
tp2880
(lp2881
V((94/100)*(1/10000))/((94/100)*(1/10000)+(1/100)*(9999/10000))
p2882
aV2016-10-18 07:24:01
p2883
as(g25
g4
tp2884
(lp2885
V.04/.1
p2886
aV2016-10-17 17:42:53
p2887
as(g3
g38
tp2888
(lp2889
V6*5/2
p2890
aV2016-10-18 02:44:45
p2891
as(g4
g14
tp2892
(lp2893
V(.25+.25)-.35
p2894
aV2016-10-17 17:54:41
p2895
as(g38
g24
tp2896
(lp2897
V(C(52-5,2)-C(52-5-4,2)+4^2)/C(52-5,2)
p2898
aV2016-10-18 00:25:02
p2899
as(g4
g38
tp2900
(lp2901
V((.25+.3)-.4)/.25
p2902
aV2016-10-17 17:54:41
p2903
as(g3
g25
tp2904
(lp2905
V12
p2906
aV2016-10-18 02:44:45
p2907
as(g19
g25
tp2908
(lp2909
VC(32,5)-C(20,5)
p2910
aV2016-10-18 00:50:16
p2911
as(g14
g14
tp2912
(lp2913
V(94/100)*(1/10000)
p2914
aV2016-10-18 07:24:01
p2915
as(g38
g14
tp2916
(lp2917
VC(47,2)
p2918
aV2016-10-18 00:25:02
p2919
as(g3
g24
tp2920
(lp2921
V4
p2922
aV2016-10-18 02:44:45
p2923
as(g4
g19
tp2924
(lp2925
V(.55-.25-.3-.25+((.25+.3)-.4)+((.25+.25)-.35)+((.3+.25)-.4))/((.3+.25)-.4)
p2926
aV2016-10-17 17:54:41
p2927
as(g24
g4
tp2928
(lp2929
V0.07*.5+0.03*.5
p2930
aV2016-10-18 07:33:59
p2931
as(g13
g25
tp2932
(lp2933
V3
p2934
aV2016-10-18 01:03:04
p2935
as(g25
g25
tp2936
(lp2937
V.04
p2938
aV2016-10-17 17:42:53
p2939
as(g91
g25
tp2940
(lp2941
V(4*4*2)
p2942
aV2016-10-18 00:45:09
p2943
as(g14
g4
tp2944
(lp2945
V(94/100)*(1/10000)+(1/100)*(9999/10000)
p2946
aV2016-10-18 07:24:01
p2947
as(g38
g4
tp2948
(lp2949
VC(52-5,2)-C(52-5-4,2)
p2950
aV2016-10-18 00:25:02
p2951
as(g24
g14
tp2952
(lp2953
V(0.07*.5)/(0.07*.5+0.03*.5)
p2954
aV2016-10-18 07:33:59
p2955
as(g91
g4
tp2956
(lp2957
V(4*4*2)/C(52-5,2)
p2958
aV2016-10-18 00:45:09
p2959
as(g3
g14
tp2960
(lp2961
V12*11
p2962
aV2016-10-18 02:44:45
p2963
as(g4
g25
tp2964
(lp2965
V(.25+.3)-.4
p2966
aV2016-10-17 17:54:41
p2967
as(g13
g4
tp2968
(lp2969
V1-3/C(45,2)
p2970
aV2016-10-18 01:03:04
p2971
as(g14
g25
tp2972
(lp2973
V1/10000
p2974
aV2016-10-18 07:24:01
p2975
as(g19
g14
tp2976
(lp2977
V(C(32,5)-C(20,5))/(C(52,5)-C(40,5))
p2978
aV2016-10-18 00:50:16
p2979
as(g3
g91
tp2980
(lp2981
V(6*5/2)/(12*11)
p2982
aV2016-10-18 02:44:45
p2983
as(g4
g91
tp2984
(lp2985
V.55-.25-.3-.25+((.25+.3)-.4)+((.25+.25)-.35)+((.3+.25)-.4)
p2986
aV2016-10-17 17:54:41
p2987
as(g4
g24
tp2988
(lp2989
V((.25+.3)-.4)/.3
p2990
aV2016-10-17 17:54:41
p2991
as(g25
g14
tp2992
(lp2993
V0
p2994
aV2016-10-17 17:42:53
p2995
as(g38
g25
tp2996
(lp2997
V16
p2998
aV2016-10-18 00:25:02
p2999
assS'zhenzhai'
p3000
(dp3001
(g4
g19
tp3002
(lp3003
V3
p3004
aV2016-10-18 22:12:57
p3005
assS'Byung'
p3006
(dp3007
(g4
g14
tp3008
(lp3009
V0.15
p3010
aV2016-10-18 04:13:19
p3011
as(g25
g25
tp3012
(lp3013
V0.1
p3014
aV2016-10-18 03:11:10
p3015
as(g4
g4
tp3016
(lp3017
V0.15
p3018
aV2016-10-18 04:13:19
p3019
as(g4
g25
tp3020
(lp3021
V0.2
p3022
aV2016-10-18 04:13:19
p3023
as(g4
g19
tp3024
(lp3025
V0.2/0.15
p3026
aV2016-10-18 04:13:19
p3027
as(g4
g91
tp3028
(lp3029
V0.2
p3030
aV2016-10-18 04:13:19
p3031
as(g25
g4
tp3032
(lp3033
V0.1/0.5
p3034
aV2016-10-18 03:11:10
p3035
as(g4
g38
tp3036
(lp3037
V0.2/0.3
p3038
aV2016-10-18 04:13:19
p3039
as(g25
g14
tp3040
(lp3041
V1
p3042
aV2016-10-18 03:11:10
p3043
as(g4
g24
tp3044
(lp3045
V0.2/0.3
p3046
aV2016-10-18 04:13:19
p3047
assS'NickWong'
p3048
(dp3049
(g4
g14
tp3050
(lp3051
V.3+.3-.4
p3052
aV2016-10-17 07:29:20
p3053
as(g25
g25
tp3054
(lp3055
V.5
p3056
aV2016-10-17 07:14:03
p3057
as(g4
g4
tp3058
(lp3059
V.3+.3-.4
p3060
aV2016-10-17 07:29:20
p3061
as(g4
g25
tp3062
(lp3063
V.3+.3-.45
p3064
aV2016-10-17 07:29:20
p3065
as(g4
g19
tp3066
(lp3067
V(.55-.3-.3-.3+.15+.2+.2)/.4
p3068
aV2016-10-17 07:29:20
p3069
as(g4
g91
tp3070
(lp3071
V.55-.3-.3-.3+.15+.2+.2
p3072
aV2016-10-17 07:29:20
p3073
as(g25
g4
tp3074
(lp3075
V1
p3076
aV2016-10-17 07:14:03
p3077
as(g4
g38
tp3078
(lp3079
V.15/.3
p3080
aV2016-10-17 07:29:20
p3081
as(g25
g14
tp3082
(lp3083
V0
p3084
aV2016-10-17 07:14:03
p3085
as(g4
g24
tp3086
(lp3087
V.15/.3
p3088
aV2016-10-17 07:29:20
p3089
assS'djku'
p3090
(dp3091
(g4
g14
tp3092
(lp3093
V(.3+.3) - .45
p3094
aV2016-10-18 06:14:47
p3095
as(g25
g25
tp3096
(lp3097
V.12
p3098
aV2016-10-18 04:18:45
p3099
as(g4
g4
tp3100
(lp3101
V(.25+.3) - .4
p3102
aV2016-10-18 06:14:47
p3103
as(g4
g25
tp3104
(lp3105
V(.3+.25) - .45
p3106
aV2016-10-18 06:14:47
p3107
as(g4
g38
tp3108
(lp3109
V((.3+.25) - .45)/.3
p3110
aV2016-10-18 06:14:47
p3111
as(g25
g14
tp3112
(lp3113
V1
p3114
aV2016-10-18 04:18:45
p3115
as(g14
g25
tp3116
(lp3117
V10^-4
p3118
aV2016-10-18 06:27:07
p3119
as(g14
g4
tp3120
(lp3121
V.95*(10^-4) + .01*(1-10^-4)
p3122
aV2016-10-18 06:27:07
p3123
as(g24
g25
tp3124
(lp3125
V(.06)(.5)
p3126
aV2016-10-18 06:31:40
p3127
as(g14
g14
tp3128
(lp3129
V.95*(10^-4)
p3130
aV2016-10-18 06:27:07
p3131
as(g4
g91
tp3132
(lp3133
V.55 + ((.3+.25) - .45) + ((.25+.3) - .4) + ((.3+.3) - .45) - .25 - .3 - .3
p3134
aV2016-10-18 06:14:47
p3135
as(g14
g24
tp3136
(lp3137
V(.95*(10^-4))/(.95*(10^-4) + .01*(1-10^-4))
p3138
aV2016-10-18 06:27:07
p3139
as(g4
g24
tp3140
(lp3141
V((.3+.25) - .45)/.25
p3142
aV2016-10-18 06:14:47
p3143
as(g24
g14
tp3144
(lp3145
V((.06)(.5))/(((.06)(.5)) + ((.03)(.5)))
p3146
aV2016-10-18 06:31:40
p3147
as(g25
g4
tp3148
(lp3149
V.12/.4
p3150
aV2016-10-18 04:18:45
p3151
as(g4
g19
tp3152
(lp3153
V(.55 + ((.3+.25) - .45) + ((.25+.3) - .4) + ((.3+.3) - .45) - .25 - .3 - .3)/((.25+.3) - .4)
p3154
aV2016-10-18 06:14:47
p3155
as(g24
g4
tp3156
(lp3157
V((.06)(.5)) + ((.03)(.5))
p3158
aV2016-10-18 06:31:40
p3159
assS'alvinyho'
p3160
(dp3161
(g4
g14
tp3162
(lp3163
V.25+.35-(.45)
p3164
aV2016-10-17 21:33:46
p3165
as(g25
g25
tp3166
(lp3167
V.3*.1
p3168
aV2016-10-17 04:44:06
p3169
as(g4
g4
tp3170
(lp3171
V.3+.35-(.5)
p3172
aV2016-10-17 21:33:46
p3173
as(g4
g25
tp3174
(lp3175
V.25+.3-(.45)
p3176
aV2016-10-17 21:33:46
p3177
as(g4
g19
tp3178
(lp3179
V(.25 + (.3+.35-(.5)) - (.25  + (.3+.35-(.5)) - (.6 - .25 - .3 -.35 + (.25+.3-(.45)) + (.3+.35-(.5)) + (.25+.35-(.45))))  )/(.3+.35-(.5))
p3180
aV2016-10-17 21:33:46
p3181
as(g4
g91
tp3182
(lp3183
V.6 - .25 - .3 -.35 + (.25+.3-(.45)) + (.3+.35-(.5)) + (.25+.35-(.45))
p3184
aV2016-10-17 21:33:46
p3185
as(g25
g4
tp3186
(lp3187
V.3*.1/.1
p3188
aV2016-10-17 04:44:06
p3189
as(g4
g38
tp3190
(lp3191
V(.25+.3-(.45))/.25
p3192
aV2016-10-17 21:33:46
p3193
as(g25
g14
tp3194
(lp3195
V1
p3196
aV2016-10-17 04:44:06
p3197
as(g4
g24
tp3198
(lp3199
V(.25+.3-(.45))/.3
p3200
aV2016-10-17 21:33:46
p3201
assS'DarrenYang'
p3202
(dp3203
(g3
g4
tp3204
(lp3205
V12
p3206
aV2016-10-17 02:45:46
p3207
as(g4
g4
tp3208
(lp3209
V0.15
p3210
aV2016-10-17 01:48:47
p3211
as(g13
g14
tp3212
(lp3213
V1-(3*C(43,2)-1)/(C(45,2)*C(43,2)/2)
p3214
aV2016-10-17 03:31:48
p3215
as(g19
g4
tp3216
(lp3217
VC(52,5)-C(40,5)
p3218
aV2016-10-17 03:00:39
p3219
as(g24
g25
tp3220
(lp3221
V0.06*0.5
p3222
aV2016-10-17 01:56:10
p3223
as(g14
g24
tp3224
(lp3225
V(95/1000000)/(9999/10000*1/100+1/10000*95/100)
p3226
aV2016-10-17 01:53:08
p3227
as(g25
g4
tp3228
(lp3229
V0.3
p3230
aV2016-10-17 00:09:27
p3231
as(g3
g38
tp3232
(lp3233
V45
p3234
aV2016-10-17 02:45:46
p3235
as(g4
g14
tp3236
(lp3237
V0.15
p3238
aV2016-10-17 01:48:47
p3239
as(g38
g24
tp3240
(lp3241
V(16+47*46/2-43*42/2)/(47*46/2)
p3242
aV2016-10-17 02:08:57
p3243
as(g4
g38
tp3244
(lp3245
V0.1/0.3
p3246
aV2016-10-17 01:48:47
p3247
as(g3
g25
tp3248
(lp3249
V13
p3250
aV2016-10-17 02:45:46
p3251
as(g19
g25
tp3252
(lp3253
VC(32,5)-C(20,5)
p3254
aV2016-10-17 03:00:39
p3255
as(g14
g14
tp3256
(lp3257
V95/1000000
p3258
aV2016-10-17 01:53:08
p3259
as(g38
g14
tp3260
(lp3261
V47*46/2
p3262
aV2016-10-17 02:08:57
p3263
as(g3
g24
tp3264
(lp3265
V3
p3266
aV2016-10-17 02:45:46
p3267
as(g4
g19
tp3268
(lp3269
V0.1/0.15
p3270
aV2016-10-17 01:48:47
p3271
as(g24
g4
tp3272
(lp3273
V0.06*0.5+0.04*0.5
p3274
aV2016-10-17 01:56:10
p3275
as(g13
g25
tp3276
(lp3277
V3
p3278
aV2016-10-17 03:31:48
p3279
as(g25
g25
tp3280
(lp3281
V0.03
p3282
aV2016-10-17 00:09:27
p3283
as(g91
g25
tp3284
(lp3285
V32
p3286
aV2016-10-17 02:13:24
p3287
as(g14
g4
tp3288
(lp3289
V9999/10000*1/100+1/10000*95/100
p3290
aV2016-10-17 01:53:08
p3291
as(g38
g4
tp3292
(lp3293
V47*46/2-43*42/2
p3294
aV2016-10-17 02:08:57
p3295
as(g24
g14
tp3296
(lp3297
V0.6
p3298
aV2016-10-17 01:56:10
p3299
as(g91
g4
tp3300
(lp3301
V32/(47*23)
p3302
aV2016-10-17 02:13:24
p3303
as(g3
g14
tp3304
(lp3305
V156
p3306
aV2016-10-17 02:45:46
p3307
as(g4
g25
tp3308
(lp3309
V0.1
p3310
aV2016-10-17 01:48:47
p3311
as(g13
g4
tp3312
(lp3313
V1-3/C(45,2)
p3314
aV2016-10-17 03:31:48
p3315
as(g14
g25
tp3316
(lp3317
V1/10000
p3318
aV2016-10-17 01:53:08
p3319
as(g19
g14
tp3320
(lp3321
V(C(32,5)-C(20,5))/(C(52,5)-C(40,5))
p3322
aV2016-10-17 03:00:39
p3323
as(g3
g91
tp3324
(lp3325
V45/156
p3326
aV2016-10-17 02:45:46
p3327
as(g4
g91
tp3328
(lp3329
V0.1
p3330
aV2016-10-17 01:48:47
p3331
as(g4
g24
tp3332
(lp3333
V0.1/0.3
p3334
aV2016-10-17 01:48:47
p3335
as(g25
g14
tp3336
(lp3337
V1
p3338
aV2016-10-17 00:09:27
p3339
as(g38
g25
tp3340
(lp3341
V16
p3342
aV2016-10-17 02:08:57
p3343
assS'ShannonWang'
p3344
(dp3345
(g3
g4
tp3346
(lp3347
V12
p3348
aV2016-10-17 05:50:01
p3349
as(g4
g4
tp3350
(lp3351
V0.1
p3352
aV2016-10-16 16:52:42
p3353
as(g13
g14
tp3354
(lp3355
V1-3/C(45,2)-3/C(43,2)
p3356
aV2016-10-17 23:33:06
p3357
as(g19
g4
tp3358
(lp3359
VC(52,5)-C(40,5)
p3360
aV2016-10-17 06:15:28
p3361
as(g24
g25
tp3362
(lp3363
V0.07*0.5
p3364
aV2016-10-17 05:25:32
p3365
as(g14
g24
tp3366
(lp3367
V(0.93/10000)/(0.93/10000+0.02*9999/10000)
p3368
aV2016-10-17 05:22:24
p3369
as(g25
g4
tp3370
(lp3371
V0.2
p3372
aV2016-10-16 16:44:26
p3373
as(g3
g38
tp3374
(lp3375
V11*10/2
p3376
aV2016-10-17 05:50:01
p3377
as(g4
g14
tp3378
(lp3379
V0.1
p3380
aV2016-10-16 16:52:42
p3381
as(g38
g24
tp3382
(lp3383
V(C(47,2)-C(43,2)+16)/C(47,2)
p3384
aV2016-10-17 06:10:29
p3385
as(g4
g38
tp3386
(lp3387
V0.5
p3388
aV2016-10-16 16:52:42
p3389
as(g3
g25
tp3390
(lp3391
V13
p3392
aV2016-10-17 05:50:01
p3393
as(g19
g25
tp3394
(lp3395
VC(32,5)-C(20,5)
p3396
aV2016-10-17 06:15:28
p3397
as(g14
g14
tp3398
(lp3399
V0.93/10000
p3400
aV2016-10-17 05:22:24
p3401
as(g38
g14
tp3402
(lp3403
VC(47,2)
p3404
aV2016-10-17 06:10:29
p3405
as(g3
g24
tp3406
(lp3407
V5
p3408
aV2016-10-17 05:50:01
p3409
as(g4
g19
tp3410
(lp3411
V1
p3412
aV2016-10-16 16:52:42
p3413
as(g24
g4
tp3414
(lp3415
V0.07*0.5+0.03*0.5
p3416
aV2016-10-17 05:25:32
p3417
as(g13
g25
tp3418
(lp3419
V3
p3420
aV2016-10-17 23:33:06
p3421
as(g25
g25
tp3422
(lp3423
V0.04
p3424
aV2016-10-16 16:44:26
p3425
as(g91
g25
tp3426
(lp3427
VC(4,1)C(8,1)
p3428
aV2016-10-17 06:05:20
p3429
as(g14
g4
tp3430
(lp3431
V0.93/10000+0.02*9999/10000
p3432
aV2016-10-17 05:22:24
p3433
as(g38
g4
tp3434
(lp3435
VC(47,2)-C(43,2)
p3436
aV2016-10-17 06:10:29
p3437
as(g24
g14
tp3438
(lp3439
V0.07*0.5/(0.07*0.5+0.03*0.5)
p3440
aV2016-10-17 05:25:32
p3441
as(g91
g4
tp3442
(lp3443
V32/C(47,2)
p3444
aV2016-10-17 06:05:20
p3445
as(g3
g14
tp3446
(lp3447
V12*13
p3448
aV2016-10-17 05:50:01
p3449
as(g4
g25
tp3450
(lp3451
V0.15
p3452
aV2016-10-16 16:52:42
p3453
as(g13
g4
tp3454
(lp3455
V1-3/C(45,2)
p3456
aV2016-10-17 23:33:06
p3457
as(g14
g25
tp3458
(lp3459
V1/10000
p3460
aV2016-10-17 05:22:24
p3461
as(g19
g14
tp3462
(lp3463
V(C(32,5)-C(20,5))/(C(52,5)-C(40,5))
p3464
aV2016-10-17 06:15:28
p3465
as(g3
g91
tp3466
(lp3467
V55/(12*13)
p3468
aV2016-10-17 05:50:01
p3469
as(g4
g91
tp3470
(lp3471
V0.1
p3472
aV2016-10-16 16:52:42
p3473
as(g4
g24
tp3474
(lp3475
V0.5
p3476
aV2016-10-16 16:52:42
p3477
as(g25
g14
tp3478
(lp3479
V1
p3480
aV2016-10-16 16:44:26
p3481
as(g38
g25
tp3482
(lp3483
V16
p3484
aV2016-10-17 06:10:29
p3485
assS'njcrow'
p3486
(dp3487
(g4
g14
tp3488
(lp3489
V.35+.25-.45
p3490
aV2016-10-18 15:30:39
p3491
as(g25
g25
tp3492
(lp3493
V.1*.5
p3494
aV2016-10-17 23:21:59
p3495
as(g4
g4
tp3496
(lp3497
V(.3+.25-.4)
p3498
aV2016-10-18 15:30:39
p3499
as(g4
g25
tp3500
(lp3501
V.35+.3-.5
p3502
aV2016-10-18 15:30:39
p3503
as(g14
g25
tp3504
(lp3505
V.99*.92
p3506
aV2016-10-18 15:45:29
p3507
as(g24
g25
tp3508
(lp3509
Vp(male,colorblind)/p(colorblind
p3510
aV2016-10-18 15:44:10
p3511
as(g4
g91
tp3512
(lp3513
V(.35+.3+.25-.5-.45-.4+.65)
p3514
aV2016-10-18 15:30:39
p3515
as(g25
g4
tp3516
(lp3517
V(.1*.5)/.5
p3518
aV2016-10-17 23:21:59
p3519
as(g4
g38
tp3520
(lp3521
V(.35+.3-.5)/.35
p3522
aV2016-10-18 15:30:39
p3523
as(g25
g14
tp3524
(lp3525
V1
p3526
aV2016-10-17 23:21:59
p3527
as(g4
g19
tp3528
(lp3529
V(.35+.3+.25-.5-.45-.4+.65)/(.3+.25-.4)
p3530
aV2016-10-18 15:30:39
p3531
as(g4
g24
tp3532
(lp3533
V(.35+.3-.5)/.3
p3534
aV2016-10-18 15:30:39
p3535
assS'Bsgreenb'
p3536
(dp3537
(g25
g4
tp3538
(lp3539
V0.2
p3540
aV2016-10-17 22:39:22
p3541
as(g25
g25
tp3542
(lp3543
V0.06
p3544
aV2016-10-17 22:39:22
p3545
as(g25
g14
tp3546
(lp3547
V1
p3548
aV2016-10-17 22:39:22
p3549
assS'Safai'
p3550
(dp3551
(g4
g14
tp3552
(lp3553
V.15
p3554
aV2016-10-18 23:59:15
p3555
as(g25
g25
tp3556
(lp3557
V.05
p3558
aV2016-10-18 23:37:48
p3559
as(g4
g4
tp3560
(lp3561
V.15
p3562
aV2016-10-18 23:59:15
p3563
as(g4
g25
tp3564
(lp3565
V.2
p3566
aV2016-10-18 23:59:15
p3567
as(g4
g19
tp3568
(lp3569
V1
p3570
aV2016-10-18 23:59:15
p3571
as(g4
g91
tp3572
(lp3573
V.15
p3574
aV2016-10-18 23:59:15
p3575
as(g25
g4
tp3576
(lp3577
V.5
p3578
aV2016-10-18 23:37:48
p3579
as(g4
g38
tp3580
(lp3581
V.2/.3
p3582
aV2016-10-18 23:59:15
p3583
as(g25
g14
tp3584
(lp3585
V1
p3586
aV2016-10-18 23:37:48
p3587
as(g4
g24
tp3588
(lp3589
V.2/.35
p3590
aV2016-10-18 23:59:15
p3591
assS'srrozen'
p3592
(dp3593
(g91
g4
tp3594
(lp3595
V(C(4,1)*C(8,1))/C(47,2)
p3596
aV2016-10-18 07:36:16
p3597
as(g4
g14
tp3598
(lp3599
V0.3+0.25-0.4
p3600
aV2016-10-18 20:31:55
p3601
as(g4
g91
tp3602
(lp3603
V0.5-0.3-0.25-0.25+0.3+0.25-0.4+0.25+0.25-0.35+0.3+0.25-0.4
p3604
aV2016-10-18 20:31:55
p3605
as(g91
g25
tp3606
(lp3607
VC(4,1)*C(8,1)
p3608
aV2016-10-18 07:36:16
p3609
as(g4
g4
tp3610
(lp3611
V0.25+0.25-0.35
p3612
aV2016-10-18 20:31:55
p3613
as(g4
g25
tp3614
(lp3615
V0.3+0.25-0.4
p3616
aV2016-10-18 20:31:55
p3617
as(g4
g38
tp3618
(lp3619
V(0.3+0.25-0.4)/0.3
p3620
aV2016-10-18 20:31:55
p3621
as(g25
g14
tp3622
(lp3623
V1
p3624
aV2016-10-17 00:54:31
p3625
as(g14
g25
tp3626
(lp3627
V0.0001
p3628
aV2016-10-18 21:03:04
p3629
as(g25
g25
tp3630
(lp3631
V0.5*0.5
p3632
aV2016-10-17 00:54:31
p3633
as(g14
g4
tp3634
(lp3635
V(0.95*0.0001)+(0.01*(1-0.0001))
p3636
aV2016-10-18 21:03:04
p3637
as(g24
g25
tp3638
(lp3639
V0.06*0.5
p3640
aV2016-10-18 07:12:26
p3641
as(g14
g14
tp3642
(lp3643
V0.95*0.0001
p3644
aV2016-10-18 21:03:04
p3645
as(g38
g14
tp3646
(lp3647
VC(47,2)
p3648
aV2016-10-18 21:31:36
p3649
as(g14
g24
tp3650
(lp3651
V(0.95*0.0001)/((0.95*0.0001)+(0.01*(1-0.0001)))
p3652
aV2016-10-18 21:03:04
p3653
as(g4
g24
tp3654
(lp3655
V(0.3+0.25-0.4)/0.25
p3656
aV2016-10-18 20:31:55
p3657
as(g24
g14
tp3658
(lp3659
V(0.06*0.5)/((0.06*0.5)+(0.03*0.5))
p3660
aV2016-10-18 07:12:26
p3661
as(g25
g4
tp3662
(lp3663
V(0.5*0.5)/0.5
p3664
aV2016-10-17 00:54:31
p3665
as(g4
g19
tp3666
(lp3667
V(0.5-0.3-0.25-0.25+0.3+0.25-0.4+0.25+0.25-0.35+0.3+0.25-0.4)/(0.25+0.25-0.35)
p3668
aV2016-10-18 20:31:55
p3669
as(g24
g4
tp3670
(lp3671
V(0.06*0.5)+(0.03*0.5)
p3672
aV2016-10-18 07:12:26
p3673
assS'yphilip'
p3674
(dp3675
(g3
g4
tp3676
(lp3677
V12
p3678
aV2016-10-18 20:34:37
p3679
as(g4
g4
tp3680
(lp3681
V0.15
p3682
aV2016-10-18 07:57:51
p3683
as(g13
g14
tp3684
(lp3685
V1-((6*C(43,2)-2)/(C(45,2)*C(43,2)))
p3686
aV2016-10-18 22:08:07
p3687
as(g19
g4
tp3688
(lp3689
VC(52,5)-C(40,5)
p3690
aV2016-10-18 19:04:08
p3691
as(g24
g25
tp3692
(lp3693
V0.07*0.5
p3694
aV2016-10-18 18:10:08
p3695
as(g14
g24
tp3696
(lp3697
V92/(92+2*9999)
p3698
aV2016-10-18 16:37:07
p3699
as(g25
g4
tp3700
(lp3701
V0.5
p3702
aV2016-10-18 07:38:59
p3703
as(g3
g38
tp3704
(lp3705
VC(8,2)
p3706
aV2016-10-18 20:34:37
p3707
as(g4
g14
tp3708
(lp3709
V0.15
p3710
aV2016-10-18 07:57:51
p3711
as(g38
g24
tp3712
(lp3713
V(16+4*43+C(4,2))/C(47,2)
p3714
aV2016-10-18 18:46:12
p3715
as(g4
g38
tp3716
(lp3717
V0.4
p3718
aV2016-10-18 07:57:51
p3719
as(g3
g25
tp3720
(lp3721
V13
p3722
aV2016-10-18 20:34:37
p3723
as(g19
g25
tp3724
(lp3725
VC(32,5)-C(20,5)
p3726
aV2016-10-18 19:04:08
p3727
as(g14
g14
tp3728
(lp3729
V92/1000000
p3730
aV2016-10-18 16:37:07
p3731
as(g38
g14
tp3732
(lp3733
VC(47,2)
p3734
aV2016-10-18 18:46:12
p3735
as(g3
g24
tp3736
(lp3737
V4
p3738
aV2016-10-18 20:34:37
p3739
as(g4
g19
tp3740
(lp3741
V1
p3742
aV2016-10-18 07:57:51
p3743
as(g24
g4
tp3744
(lp3745
V0.05
p3746
aV2016-10-18 18:10:08
p3747
as(g13
g25
tp3748
(lp3749
V3
p3750
aV2016-10-18 22:08:07
p3751
as(g25
g25
tp3752
(lp3753
V0.25
p3754
aV2016-10-18 07:38:59
p3755
as(g91
g25
tp3756
(lp3757
V32
p3758
aV2016-10-18 18:53:06
p3759
as(g14
g4
tp3760
(lp3761
V92/1000000+2*9999/1000000
p3762
aV2016-10-18 16:37:07
p3763
as(g38
g4
tp3764
(lp3765
V4*43+C(4,2)
p3766
aV2016-10-18 18:46:12
p3767
as(g24
g14
tp3768
(lp3769
V0.035/0.05
p3770
aV2016-10-18 18:10:08
p3771
as(g91
g4
tp3772
(lp3773
V32/C(47,2)
p3774
aV2016-10-18 18:53:06
p3775
as(g3
g14
tp3776
(lp3777
V13*12
p3778
aV2016-10-18 20:34:37
p3779
as(g4
g25
tp3780
(lp3781
V0.1
p3782
aV2016-10-18 07:57:51
p3783
as(g13
g4
tp3784
(lp3785
V1-(3/C(45,2))
p3786
aV2016-10-18 22:08:07
p3787
as(g14
g25
tp3788
(lp3789
V1/10000
p3790
aV2016-10-18 16:37:07
p3791
as(g19
g14
tp3792
(lp3793
V(C(32,5)-C(20,5))/(C(52,5)-C(40,5))
p3794
aV2016-10-18 19:04:08
p3795
as(g3
g91
tp3796
(lp3797
VC(8,2)/(13*12)
p3798
aV2016-10-18 20:34:37
p3799
as(g4
g91
tp3800
(lp3801
V0.15
p3802
aV2016-10-18 07:57:51
p3803
as(g4
g24
tp3804
(lp3805
V1/3
p3806
aV2016-10-18 07:57:51
p3807
as(g25
g14
tp3808
(lp3809
V1
p3810
aV2016-10-18 07:38:59
p3811
as(g38
g25
tp3812
(lp3813
V16
p3814
aV2016-10-18 18:46:12
p3815
assS'JiangfengYin'
p3816
(dp3817
(g4
g14
tp3818
(lp3819
V0.15
p3820
aV2016-10-18 18:07:56
p3821
as(g25
g25
tp3822
(lp3823
V0.4
p3824
aV2016-10-18 17:49:46
p3825
as(g4
g4
tp3826
(lp3827
V0.15
p3828
aV2016-10-18 18:07:56
p3829
as(g4
g25
tp3830
(lp3831
V0.1
p3832
aV2016-10-18 18:07:56
p3833
as(g25
g14
tp3834
(lp3835
V0
p3836
aV2016-10-18 17:49:46
p3837
as(g14
g25
tp3838
(lp3839
V1/10000
p3840
aV2016-10-18 18:18:23
p3841
as(g14
g4
tp3842
(lp3843
V0.020091
p3844
aV2016-10-18 18:18:23
p3845
as(g4
g19
tp3846
(lp3847
V2/3
p3848
aV2016-10-18 18:07:56
p3849
as(g14
g14
tp3850
(lp3851
V93/1000000
p3852
aV2016-10-18 18:18:23
p3853
as(g4
g91
tp3854
(lp3855
V0.1
p3856
aV2016-10-18 18:07:56
p3857
as(g14
g24
tp3858
(lp3859
V0.00463
p3860
aV2016-10-18 18:18:23
p3861
as(g4
g38
tp3862
(lp3863
V0.4
p3864
aV2016-10-18 18:07:56
p3865
as(g25
g4
tp3866
(lp3867
V1
p3868
aV2016-10-18 17:49:46
p3869
as(g4
g24
tp3870
(lp3871
V1/3
p3872
aV2016-10-18 18:07:56
p3873
assS'SidneyNguyen'
p3874
(dp3875
(g25
g4
tp3876
(lp3877
V0.3
p3878
aV2016-10-17 23:59:30
p3879
as(g25
g25
tp3880
(lp3881
V0.06
p3882
aV2016-10-17 23:59:30
p3883
as(g25
g14
tp3884
(lp3885
V1
p3886
aV2016-10-17 23:59:30
p3887
assS'hunguyen'
p3888
(dp3889
(g4
g14
tp3890
(lp3891
V.25 + .25 - .4
p3892
aV2016-10-17 05:06:44
p3893
as(g25
g25
tp3894
(lp3895
V.02
p3896
aV2016-10-17 04:53:19
p3897
as(g4
g4
tp3898
(lp3899
V.3 + .25 - .45
p3900
aV2016-10-17 05:06:44
p3901
as(g4
g25
tp3902
(lp3903
V.25 + .3 - .45
p3904
aV2016-10-17 05:06:44
p3905
as(g4
g38
tp3906
(lp3907
V(.25 + .3 - .45)/.25
p3908
aV2016-10-17 05:06:44
p3909
as(g25
g14
tp3910
(lp3911
V0
p3912
aV2016-10-17 04:53:19
p3913
as(g14
g25
tp3914
(lp3915
V1/10000
p3916
aV2016-10-18 18:30:45
p3917
as(g14
g4
tp3918
(lp3919
V(93/100)*(1/10000) + (2/100)*(9999/10000)
p3920
aV2016-10-18 18:30:45
p3921
as(g24
g25
tp3922
(lp3923
V(.06)*(.5)
p3924
aV2016-10-18 18:36:09
p3925
as(g14
g14
tp3926
(lp3927
V(1/10000)*(93/100)
p3928
aV2016-10-18 18:30:45
p3929
as(g4
g91
tp3930
(lp3931
V.55 - .25 - .3 -.25 + .25 + .3 - .45 + .25 + .25 - .4 + .3 + .25 - .45
p3932
aV2016-10-17 05:06:44
p3933
as(g14
g24
tp3934
(lp3935
V(1/10000)*(93/100)/((93/100)*(1/10000) + (2/100)*(9999/10000))
p3936
aV2016-10-18 18:30:45
p3937
as(g4
g24
tp3938
(lp3939
V(.25 + .3 - .45)/.3
p3940
aV2016-10-17 05:06:44
p3941
as(g24
g14
tp3942
(lp3943
V(.06)*(.5)/((.06)*(.5) + (.04)*(0.5))
p3944
aV2016-10-18 18:36:09
p3945
as(g25
g4
tp3946
(lp3947
V.2
p3948
aV2016-10-17 04:53:19
p3949
as(g4
g19
tp3950
(lp3951
V(.55 - .25 - .3 -.25 + .25 + .3 - .45 + .25 + .25 - .4 + .3 + .25 - .45)/(.3 + .25 - .45)
p3952
aV2016-10-17 05:06:44
p3953
as(g24
g4
tp3954
(lp3955
V(.06)*(.5) + (.04)*(0.5)
p3956
aV2016-10-18 18:36:09
p3957
assS'SothyrakSrey'
p3958
(dp3959
(g25
g4
tp3960
(lp3961
V0.1
p3962
aV2016-10-18 02:04:43
p3963
as(g25
g25
tp3964
(lp3965
V0.03
p3966
aV2016-10-18 02:04:43
p3967
as(g25
g14
tp3968
(lp3969
V1
p3970
aV2016-10-18 02:04:43
p3971
assS'Alix'
p3972
(dp3973
(g25
g4
tp3974
(lp3975
V.06/.3
p3976
aV2016-10-18 04:18:30
p3977
as(g25
g25
tp3978
(lp3979
V.06
p3980
aV2016-10-18 04:18:30
p3981
as(g25
g14
tp3982
(lp3983
V1
p3984
aV2016-10-18 04:18:30
p3985
assS'ccaine'
p3986
(dp3987
(g4
g25
tp3988
(lp3989
V0.3*0.25
p3990
aV2016-10-17 01:09:50
p3991
as(g25
g4
tp3992
(lp3993
V0.5
p3994
aV2016-10-17 00:50:41
p3995
as(g25
g25
tp3996
(lp3997
V0.5*0.5
p3998
aV2016-10-17 00:50:41
p3999
as(g25
g14
tp4000
(lp4001
V1
p4002
aV2016-10-17 00:50:41
p4003
assS'wesokuhara'
p4004
(dp4005
(g4
g14
tp4006
(lp4007
V0.15
p4008
aV2016-10-17 19:23:21
p4009
as(g25
g25
tp4010
(lp4011
V0.3 + 0.3 - 0.42
p4012
aV2016-10-17 19:40:16
p4013
as(g4
g4
tp4014
(lp4015
V0.15
p4016
aV2016-10-17 19:23:21
p4017
as(g4
g25
tp4018
(lp4019
V0.1
p4020
aV2016-10-17 19:23:21
p4021
as(g4
g19
tp4022
(lp4023
V(0.6 - 0.3 - 0.25 - 0.3 + 0.1 + 0.15 + 0.15)/0.15
p4024
aV2016-10-17 19:23:21
p4025
as(g4
g91
tp4026
(lp4027
V0.6 - 0.3 - 0.25 - 0.3 + 0.1 + 0.15 + 0.15
p4028
aV2016-10-17 19:23:21
p4029
as(g25
g4
tp4030
(lp4031
V0.18/0.3
p4032
aV2016-10-17 19:40:16
p4033
as(g4
g38
tp4034
(lp4035
V0.1/0.3
p4036
aV2016-10-17 19:23:21
p4037
as(g25
g14
tp4038
(lp4039
V0
p4040
aV2016-10-17 19:40:16
p4041
as(g4
g24
tp4042
(lp4043
V0.1/0.25
p4044
aV2016-10-17 19:23:21
p4045
assS'ray003'
p4046
(dp4047
(g3
g4
tp4048
(lp4049
V11
p4050
aV2016-10-16 09:30:24
p4051
as(g4
g4
tp4052
(lp4053
V0.1
p4054
aV2016-10-16 07:50:11
p4055
as(g19
g4
tp4056
(lp4057
VC(52,5)-C(40,5)
p4058
aV2016-10-16 09:16:22
p4059
as(g24
g25
tp4060
(lp4061
V0.06*0.5
p4062
aV2016-10-16 08:16:26
p4063
as(g14
g24
tp4064
(lp4065
V(0.95*0.0001)/((0.95*0.0001)+(0.01*0.9999))
p4066
aV2016-10-16 08:09:33
p4067
as(g25
g4
tp4068
(lp4069
V0.2
p4070
aV2016-10-16 07:41:29
p4071
as(g3
g38
tp4072
(lp4073
V15
p4074
aV2016-10-16 09:30:24
p4075
as(g4
g14
tp4076
(lp4077
V0.1
p4078
aV2016-10-16 07:50:11
p4079
as(g38
g24
tp4080
(lp4081
V(4*4+C(47,2)-C(43,2))/C(47,2)
p4082
aV2016-10-16 08:59:40
p4083
as(g4
g38
tp4084
(lp4085
V0.15/0.3
p4086
aV2016-10-16 07:50:11
p4087
as(g3
g25
tp4088
(lp4089
V12
p4090
aV2016-10-16 09:30:24
p4091
as(g19
g25
tp4092
(lp4093
VC(32,5)-C(20,5)
p4094
aV2016-10-16 09:16:22
p4095
as(g14
g14
tp4096
(lp4097
V0.95*0.0001
p4098
aV2016-10-16 08:09:33
p4099
as(g38
g14
tp4100
(lp4101
VC(47,2)
p4102
aV2016-10-16 08:59:40
p4103
as(g3
g24
tp4104
(lp4105
V4
p4106
aV2016-10-16 09:30:24
p4107
as(g4
g19
tp4108
(lp4109
V0.15/0.1
p4110
aV2016-10-16 07:50:11
p4111
as(g24
g4
tp4112
(lp4113
V(0.06*0.5)+(0.04*0.5)
p4114
aV2016-10-16 08:16:26
p4115
as(g13
g25
tp4116
(lp4117
V3
p4118
aV2016-10-16 09:25:26
p4119
as(g25
g25
tp4120
(lp4121
V0.08
p4122
aV2016-10-16 07:41:29
p4123
as(g91
g25
tp4124
(lp4125
V32
p4126
aV2016-10-16 09:02:29
p4127
as(g14
g4
tp4128
(lp4129
V(0.95*0.0001)+(0.01*0.9999)
p4130
aV2016-10-16 08:09:33
p4131
as(g38
g4
tp4132
(lp4133
VC(47,2)-C(43,2)
p4134
aV2016-10-16 08:59:40
p4135
as(g24
g14
tp4136
(lp4137
V(0.06*0.5)/((0.06*0.5)+(0.04*0.5))
p4138
aV2016-10-16 08:16:26
p4139
as(g91
g4
tp4140
(lp4141
V32/C(47,2)
p4142
aV2016-10-16 09:02:29
p4143
as(g3
g14
tp4144
(lp4145
V132
p4146
aV2016-10-16 09:30:24
p4147
as(g4
g25
tp4148
(lp4149
V0.15
p4150
aV2016-10-16 07:50:11
p4151
as(g13
g4
tp4152
(lp4153
V3/(C(45,2))
p4154
aV2016-10-16 09:25:26
p4155
as(g14
g25
tp4156
(lp4157
V0.0001
p4158
aV2016-10-16 08:09:33
p4159
as(g19
g14
tp4160
(lp4161
V(C(32,5)-C(20,5))/(C(52,5)-C(40,5))
p4162
aV2016-10-16 09:16:22
p4163
as(g3
g91
tp4164
(lp4165
V15/132
p4166
aV2016-10-16 09:30:24
p4167
as(g4
g91
tp4168
(lp4169
V0.15
p4170
aV2016-10-16 07:50:11
p4171
as(g4
g24
tp4172
(lp4173
V0.15/0.3
p4174
aV2016-10-16 07:50:11
p4175
as(g25
g14
tp4176
(lp4177
V1
p4178
aV2016-10-16 07:41:29
p4179
as(g38
g25
tp4180
(lp4181
V4*4
p4182
aV2016-10-16 08:59:40
p4183
assS'aives'
p4184
(dp4185
(g4
g14
tp4186
(lp4187
V0.15
p4188
aV2016-10-17 01:42:12
p4189
as(g4
g91
tp4190
(lp4191
V0.15
p4192
aV2016-10-17 01:42:12
p4193
as(g38
g4
tp4194
(lp4195
V2*C(4,1)*C(48,1)
p4196
aV2016-10-17 01:57:53
p4197
as(g4
g25
tp4198
(lp4199
V0.15
p4200
aV2016-10-17 01:42:12
p4201
as(g38
g24
tp4202
(lp4203
V(2*C(4,1)*C(4,1)) + (2*C(4,1)*C(48,1)) / C(47,2)
p4204
aV2016-10-17 01:57:53
p4205
as(g4
g38
tp4206
(lp4207
V0.15/0.3
p4208
aV2016-10-17 01:42:12
p4209
as(g25
g14
tp4210
(lp4211
V0
p4212
aV2016-10-17 01:27:36
p4213
as(g4
g4
tp4214
(lp4215
V0.15
p4216
aV2016-10-17 01:42:12
p4217
as(g14
g25
tp4218
(lp4219
V1/10000
p4220
aV2016-10-17 01:47:41
p4221
as(g25
g25
tp4222
(lp4223
V0.04
p4224
aV2016-10-17 01:27:36
p4225
as(g14
g4
tp4226
(lp4227
V(95/100)*(1/10000) + (1/100)*(10000-1)/10000
p4228
aV2016-10-17 01:47:41
p4229
as(g4
g24
tp4230
(lp4231
V0.15/0.3
p4232
aV2016-10-17 01:42:12
p4233
as(g24
g25
tp4234
(lp4235
V7/100*1/2
p4236
aV2016-10-17 09:07:18
p4237
as(g14
g14
tp4238
(lp4239
V(95/100)*(1/10^4)
p4240
aV2016-10-17 01:47:41
p4241
as(g38
g14
tp4242
(lp4243
VC(47,2)
p4244
aV2016-10-17 01:57:53
p4245
as(g14
g24
tp4246
(lp4247
V((95/100)*(1/10^4))/((95/100)*(1/10000) + (1/100)*(10000-1)/10000)
p4248
aV2016-10-17 01:47:41
p4249
as(g38
g25
tp4250
(lp4251
V2*C(4,1)*C(4,1)
p4252
aV2016-10-17 01:57:53
p4253
as(g24
g14
tp4254
(lp4255
V(7/100*1/2)/(7/100*1/2+4/100*1/2)
p4256
aV2016-10-17 09:07:18
p4257
as(g25
g4
tp4258
(lp4259
V0.04 / 0.1
p4260
aV2016-10-17 01:27:36
p4261
as(g4
g19
tp4262
(lp4263
V1
p4264
aV2016-10-17 01:42:12
p4265
as(g24
g4
tp4266
(lp4267
V7/100*1/2+4/100*1/2
p4268
aV2016-10-17 09:07:18
p4269
assS'christhoperbernard'
p4270
(dp4271
(g4
g14
tp4272
(lp4273
V0.3+0.3-0.45
p4274
aV2016-10-16 05:09:09
p4275
as(g25
g25
tp4276
(lp4277
V0.09
p4278
aV2016-10-16 04:42:07
p4279
as(g4
g4
tp4280
(lp4281
V0.2+0.3-0.35
p4282
aV2016-10-16 05:09:09
p4283
as(g4
g25
tp4284
(lp4285
V0.3+0.2-0.4
p4286
aV2016-10-16 05:09:09
p4287
as(g4
g38
tp4288
(lp4289
V(0.3+0.2-0.4)/0.3
p4290
aV2016-10-16 05:09:09
p4291
as(g25
g14
tp4292
(lp4293
V1
p4294
aV2016-10-16 04:42:07
p4295
as(g14
g25
tp4296
(lp4297
V10^(-4)
p4298
aV2016-10-16 22:34:54
p4299
as(g14
g4
tp4300
(lp4301
V92/100*(10^(-4)) + 2/100*(1-10^(-4))
p4302
aV2016-10-16 22:34:54
p4303
as(g24
g25
tp4304
(lp4305
V6/100*0.5
p4306
aV2016-10-16 22:38:10
p4307
as(g14
g14
tp4308
(lp4309
V92/100*10^(-4)
p4310
aV2016-10-16 22:34:54
p4311
as(g4
g91
tp4312
(lp4313
V0.55-0.3-0.2-0.3+(0.3+0.2-0.4)+(0.2+0.3-0.35)+(0.3+0.3-0.45)
p4314
aV2016-10-16 05:09:09
p4315
as(g14
g24
tp4316
(lp4317
V92/100*10^(-4)/(92/100*(10^(-4)) + 2/100*(1-10^(-4)))
p4318
aV2016-10-16 22:34:54
p4319
as(g4
g24
tp4320
(lp4321
V(0.3+0.2-0.4)/0.2
p4322
aV2016-10-16 05:09:09
p4323
as(g24
g14
tp4324
(lp4325
V6/100*0.5/(6/100*0.5+3/100*0.5)
p4326
aV2016-10-16 22:38:10
p4327
as(g25
g4
tp4328
(lp4329
V0.09/0.3
p4330
aV2016-10-16 04:42:07
p4331
as(g4
g19
tp4332
(lp4333
V(0.55-0.3-0.2-0.3+(0.3+0.2-0.4)+(0.2+0.3-0.35)+(0.3+0.3-0.45))/(0.2+0.3-0.35)
p4334
aV2016-10-16 05:09:09
p4335
as(g24
g4
tp4336
(lp4337
V6/100*0.5+3/100*0.5
p4338
aV2016-10-16 22:38:10
p4339
assS'Sync'
p4340
(dp4341
(g4
g4
tp4342
(lp4343
V.3+.3-.45
p4344
aV2016-10-17 19:54:30
p4345
as(g19
g4
tp4346
(lp4347
V(C(52,5))-(C(40,5))
p4348
aV2016-10-18 23:01:08
p4349
as(g24
g25
tp4350
(lp4351
V.5*.07
p4352
aV2016-10-18 17:39:12
p4353
as(g14
g24
tp4354
(lp4355
V((1/10000)*(93/100))/((1/10000)*(93/100)+(9999/10000)*(1/100))
p4356
aV2016-10-18 17:37:00
p4357
as(g25
g4
tp4358
(lp4359
V.08/.1
p4360
aV2016-10-17 19:46:25
p4361
as(g4
g14
tp4362
(lp4363
V.35+.3-.5
p4364
aV2016-10-17 19:54:30
p4365
as(g38
g24
tp4366
(lp4367
V((C(4,1)*C(4,1))+((C(47,2))-(C(43,2))))/(C(47,2))
p4368
aV2016-10-18 19:45:26
p4369
as(g24
g14
tp4370
(lp4371
V(.5*.07)/((.07)*(.5)+(.03)*(.5))
p4372
aV2016-10-18 17:39:12
p4373
as(g19
g25
tp4374
(lp4375
V(C(32,5))-(C(20,5))
p4376
aV2016-10-18 23:01:08
p4377
as(g14
g14
tp4378
(lp4379
V(1/10000)*(93/100)
p4380
aV2016-10-18 17:37:00
p4381
as(g38
g14
tp4382
(lp4383
VC(47,2)
p4384
aV2016-10-18 19:45:26
p4385
as(g4
g19
tp4386
(lp4387
V(.65-.35-.3-.3+(.35+.3-.5)+(.3+.3-.45)+(((.35)+(.3))-(.45)))/(.3+.3-.45)
p4388
aV2016-10-17 19:54:30
p4389
as(g4
g24
tp4390
(lp4391
V(((.35)+(.3))-(.45))/.3
p4392
aV2016-10-17 19:54:30
p4393
as(g13
g25
tp4394
(lp4395
V3
p4396
aV2016-10-18 23:07:12
p4397
as(g25
g25
tp4398
(lp4399
V.08
p4400
aV2016-10-17 19:46:25
p4401
as(g91
g25
tp4402
(lp4403
V4*8
p4404
aV2016-10-18 20:46:18
p4405
as(g14
g4
tp4406
(lp4407
V(1/10000)*(93/100)+(9999/10000)*(1/100)
p4408
aV2016-10-18 17:37:00
p4409
as(g38
g4
tp4410
(lp4411
V(C(47,2))-(C(43,2))
p4412
aV2016-10-18 19:45:26
p4413
as(g4
g38
tp4414
(lp4415
V(((.35)+(.3))-(.45))/.35
p4416
aV2016-10-17 19:54:30
p4417
as(g91
g4
tp4418
(lp4419
V(32)/(C(47,2))
p4420
aV2016-10-18 20:46:18
p4421
as(g4
g25
tp4422
(lp4423
V((.35)+(.3))-(.45)
p4424
aV2016-10-17 19:54:30
p4425
as(g13
g4
tp4426
(lp4427
V1-((3)/(C(45,2)))
p4428
aV2016-10-18 23:07:12
p4429
as(g14
g25
tp4430
(lp4431
V1/10000
p4432
aV2016-10-18 17:37:00
p4433
as(g19
g14
tp4434
(lp4435
V((C(32,5))-(C(20,5)))/((C(52,5))-(C(40,5)))
p4436
aV2016-10-18 23:01:08
p4437
as(g4
g91
tp4438
(lp4439
V.65-.35-.3-.3+(.35+.3-.5)+(.3+.3-.45)+(((.35)+(.3))-(.45))
p4440
aV2016-10-17 19:54:30
p4441
as(g24
g4
tp4442
(lp4443
V(.07)*(.5)+(.03)*(.5)
p4444
aV2016-10-18 17:39:12
p4445
as(g25
g14
tp4446
(lp4447
V0
p4448
aV2016-10-17 19:46:25
p4449
as(g38
g25
tp4450
(lp4451
VC(4,1)*C(4,1)
p4452
aV2016-10-18 19:45:26
p4453
assS'MattBowen96'
p4454
(dp4455
(g25
g4
tp4456
(lp4457
V.1
p4458
aV2016-10-16 07:07:00
p4459
as(g25
g25
tp4460
(lp4461
V.01
p4462
aV2016-10-16 07:07:00
p4463
as(g25
g14
tp4464
(lp4465
V1
p4466
aV2016-10-16 07:07:00
p4467
assS'adejesus'
p4468
(dp4469
(g25
g4
tp4470
(lp4471
V(0.4 * 0.2) / 0.2
p4472
aV2016-10-17 04:53:43
p4473
as(g25
g25
tp4474
(lp4475
V0.4 * 0.2
p4476
aV2016-10-17 04:53:43
p4477
as(g25
g14
tp4478
(lp4479
V1
p4480
aV2016-10-17 04:53:43
p4481
assS'PaulWall43'
p4482
(dp4483
(g4
g14
tp4484
(lp4485
V.10
p4486
aV2016-10-16 05:41:54
p4487
as(g25
g25
tp4488
(lp4489
V0.8 - 0.64
p4490
aV2016-10-16 02:58:01
p4491
as(g4
g4
tp4492
(lp4493
V.10
p4494
aV2016-10-16 05:41:54
p4495
as(g4
g25
tp4496
(lp4497
V.15
p4498
aV2016-10-16 05:41:54
p4499
as(g4
g38
tp4500
(lp4501
V.15/.3
p4502
aV2016-10-16 05:41:54
p4503
as(g25
g14
tp4504
(lp4505
V1
p4506
aV2016-10-16 02:58:01
p4507
as(g14
g25
tp4508
(lp4509
V.0001
p4510
aV2016-10-16 06:24:50
p4511
as(g14
g4
tp4512
(lp4513
V0.02009
p4514
aV2016-10-16 06:24:50
p4515
as(g24
g25
tp4516
(lp4517
V0.06 * .5
p4518
aV2016-10-16 06:37:49
p4519
as(g14
g14
tp4520
(lp4521
V.92 * .0001
p4522
aV2016-10-16 06:24:50
p4523
as(g4
g91
tp4524
(lp4525
V.15
p4526
aV2016-10-16 05:41:54
p4527
as(g14
g24
tp4528
(lp4529
V(.92*.0001)/.02009
p4530
aV2016-10-16 06:24:50
p4531
as(g4
g24
tp4532
(lp4533
V.15/.25
p4534
aV2016-10-16 05:41:54
p4535
as(g24
g14
tp4536
(lp4537
V(0.06 * .5) / (0.06 * .5 + .5 * .04)
p4538
aV2016-10-16 06:37:49
p4539
as(g25
g4
tp4540
(lp4541
V(0.8 - 0.64)/ 0.4
p4542
aV2016-10-16 02:58:01
p4543
as(g4
g19
tp4544
(lp4545
V.15/.10
p4546
aV2016-10-16 05:41:54
p4547
as(g24
g4
tp4548
(lp4549
V0.06 * .5 + .5 * .04
p4550
aV2016-10-16 06:37:49
p4551
assS'rjanowit'
p4552
(dp4553
(g4
g14
tp4554
(lp4555
V(0.2+0.25)-0.35
p4556
aV2016-10-18 22:07:30
p4557
as(g25
g25
tp4558
(lp4559
V(0.5+0.3)-0.65
p4560
aV2016-10-18 21:55:33
p4561
as(g4
g4
tp4562
(lp4563
V(0.25+0.25)-(0.5-0.25)
p4564
aV2016-10-18 22:07:30
p4565
as(g4
g25
tp4566
(lp4567
V(0.2+0.25)-0.35
p4568
aV2016-10-18 22:07:30
p4569
as(g4
g19
tp4570
(lp4571
V(0.35/0.25)*(0.35/0.25)
p4572
aV2016-10-18 22:07:30
p4573
as(g4
g91
tp4574
(lp4575
V0.5-(0.2+0.25+0.25)+(0.35+0.35+0.25)
p4576
aV2016-10-18 22:07:30
p4577
as(g25
g4
tp4578
(lp4579
V0.5
p4580
aV2016-10-18 21:55:33
p4581
as(g4
g38
tp4582
(lp4583
V0.35/0.2
p4584
aV2016-10-18 22:07:30
p4585
as(g25
g14
tp4586
(lp4587
V1
p4588
aV2016-10-18 21:55:33
p4589
as(g4
g24
tp4590
(lp4591
V0.35/0.25
p4592
aV2016-10-18 22:07:30
p4593
assS'codyndoan'
p4594
(dp4595
(g3
g4
tp4596
(lp4597
V12
p4598
aV2016-10-18 20:09:38
p4599
as(g4
g4
tp4600
(lp4601
V(.35 + .35) - .55
p4602
aV2016-10-18 01:35:06
p4603
as(g13
g14
tp4604
(lp4605
V((C(47,2) - 3)/C(47,2))((C(47,2) - 3)/C(47,2))
p4606
aV2016-10-18 19:49:27
p4607
as(g19
g4
tp4608
(lp4609
VC(52,5) - C(40,5)
p4610
aV2016-10-18 19:41:40
p4611
as(g24
g25
tp4612
(lp4613
V(.07)(.5)
p4614
aV2016-10-18 19:04:43
p4615
as(g14
g24
tp4616
(lp4617
V(.93)(1/10000)/(.020091)
p4618
aV2016-10-18 19:03:01
p4619
as(g25
g4
tp4620
(lp4621
V((.2 + .3) - .44)/.3
p4622
aV2016-10-16 19:59:57
p4623
as(g3
g38
tp4624
(lp4625
V55
p4626
aV2016-10-18 20:09:38
p4627
as(g4
g14
tp4628
(lp4629
V(.35 + .35) - .55
p4630
aV2016-10-18 01:35:06
p4631
as(g38
g24
tp4632
(lp4633
V(16 + C(47,2) - C(43,2))/C(47,2)
p4634
aV2016-10-18 19:25:48
p4635
as(g4
g38
tp4636
(lp4637
V((.35 + .35) - .5)/.35
p4638
aV2016-10-18 01:35:06
p4639
as(g3
g25
tp4640
(lp4641
V13
p4642
aV2016-10-18 20:09:38
p4643
as(g19
g25
tp4644
(lp4645
VC(32,5) - C(20,5)
p4646
aV2016-10-18 19:41:40
p4647
as(g14
g14
tp4648
(lp4649
V(.93)(1/10000)
p4650
aV2016-10-18 19:03:01
p4651
as(g38
g14
tp4652
(lp4653
VC(47,2)
p4654
aV2016-10-18 19:25:48
p4655
as(g3
g24
tp4656
(lp4657
V5
p4658
aV2016-10-18 20:09:38
p4659
as(g4
g19
tp4660
(lp4661
V(.65 - .35 -.35 - .35 + ((.35 + .35) - .5) + ((.35 + .35) - .55) + ((.35 + .35) - .55))/((.35 + .35) - .55)
p4662
aV2016-10-18 01:35:06
p4663
as(g24
g4
tp4664
(lp4665
V.055
p4666
aV2016-10-18 19:04:43
p4667
as(g13
g25
tp4668
(lp4669
V3
p4670
aV2016-10-18 19:49:27
p4671
as(g25
g25
tp4672
(lp4673
V(.2 + .3) - .44
p4674
aV2016-10-16 19:59:57
p4675
as(g91
g25
tp4676
(lp4677
V4*4 + 4*4
p4678
aV2016-10-18 19:31:39
p4679
as(g14
g4
tp4680
(lp4681
V.020091
p4682
aV2016-10-18 19:03:01
p4683
as(g38
g4
tp4684
(lp4685
VC(47,2) - C(43,2)
p4686
aV2016-10-18 19:25:48
p4687
as(g24
g14
tp4688
(lp4689
V(.07)(.5)/.055
p4690
aV2016-10-18 19:04:43
p4691
as(g91
g4
tp4692
(lp4693
V32/C(47,2)
p4694
aV2016-10-18 19:31:39
p4695
as(g3
g14
tp4696
(lp4697
V13*12
p4698
aV2016-10-18 20:09:38
p4699
as(g4
g25
tp4700
(lp4701
V(.35 + .35) - .5
p4702
aV2016-10-18 01:35:06
p4703
as(g13
g4
tp4704
(lp4705
V(C(47,2) - 3)/C(47,2)
p4706
aV2016-10-18 19:49:27
p4707
as(g14
g25
tp4708
(lp4709
V(1/10000)
p4710
aV2016-10-18 19:03:01
p4711
as(g19
g14
tp4712
(lp4713
V(C(32,5) - C(20,5))/(C(52,5) - C(40,5))
p4714
aV2016-10-18 19:41:40
p4715
as(g3
g91
tp4716
(lp4717
V55/(13*12)
p4718
aV2016-10-18 20:09:38
p4719
as(g4
g91
tp4720
(lp4721
V.65 - .35 -.35 - .35 + ((.35 + .35) - .5) + ((.35 + .35) - .55) + ((.35 + .35) - .55)
p4722
aV2016-10-18 01:35:06
p4723
as(g4
g24
tp4724
(lp4725
V((.35 + .35) - .5)/.35
p4726
aV2016-10-18 01:35:06
p4727
as(g25
g14
tp4728
(lp4729
V1
p4730
aV2016-10-16 19:59:57
p4731
as(g38
g25
tp4732
(lp4733
V4*4
p4734
aV2016-10-18 19:25:48
p4735
assS'alebedev'
p4736
(dp4737
(g4
g4
tp4738
(lp4739
V0.15
p4740
aV2016-10-16 21:10:54
p4741
as(g13
g14
tp4742
(lp4743
V1-(64/(C(45,2)*C(45,2)))
p4744
aV2016-10-18 00:26:16
p4745
as(g19
g4
tp4746
(lp4747
VC(52,5)-C(40,5)
p4748
aV2016-10-18 00:19:32
p4749
as(g24
g25
tp4750
(lp4751
V0.03
p4752
aV2016-10-16 21:25:42
p4753
as(g14
g24
tp4754
(lp4755
V0.004728
p4756
aV2016-10-16 21:21:04
p4757
as(g25
g4
tp4758
(lp4759
V0.4
p4760
aV2016-10-16 21:03:54
p4761
as(g4
g14
tp4762
(lp4763
V0.15
p4764
aV2016-10-16 21:10:54
p4765
as(g38
g24
tp4766
(lp4767
V194/C(47,2)
p4768
aV2016-10-17 23:54:58
p4769
as(g24
g14
tp4770
(lp4771
V0.6
p4772
aV2016-10-16 21:25:42
p4773
as(g19
g25
tp4774
(lp4775
VC(32,5)-C(20,5)
p4776
aV2016-10-18 00:19:32
p4777
as(g14
g14
tp4778
(lp4779
V0.000095
p4780
aV2016-10-16 21:21:04
p4781
as(g38
g14
tp4782
(lp4783
VC(47,2)
p4784
aV2016-10-17 23:54:58
p4785
as(g4
g19
tp4786
(lp4787
V1
p4788
aV2016-10-16 21:10:54
p4789
as(g4
g24
tp4790
(lp4791
V0.33333
p4792
aV2016-10-16 21:10:54
p4793
as(g13
g25
tp4794
(lp4795
V32
p4796
aV2016-10-18 00:26:16
p4797
as(g25
g25
tp4798
(lp4799
V0.20
p4800
aV2016-10-16 21:03:54
p4801
as(g91
g25
tp4802
(lp4803
V32
p4804
aV2016-10-18 00:02:26
p4805
as(g14
g4
tp4806
(lp4807
V0.020093
p4808
aV2016-10-16 21:21:04
p4809
as(g38
g4
tp4810
(lp4811
V4*43+6
p4812
aV2016-10-17 23:54:58
p4813
as(g4
g38
tp4814
(lp4815
V0.33333
p4816
aV2016-10-16 21:10:54
p4817
as(g91
g4
tp4818
(lp4819
V32/C(47,2)
p4820
aV2016-10-18 00:02:26
p4821
as(g4
g25
tp4822
(lp4823
V0.1
p4824
aV2016-10-16 21:10:54
p4825
as(g13
g4
tp4826
(lp4827
V1-(32/C(45,2))
p4828
aV2016-10-18 00:26:16
p4829
as(g14
g25
tp4830
(lp4831
V0.0001
p4832
aV2016-10-16 21:21:04
p4833
as(g19
g14
tp4834
(lp4835
V(C(32,5)-C(20,5))/(C(52,5)-C(40,5))
p4836
aV2016-10-18 00:19:32
p4837
as(g4
g91
tp4838
(lp4839
V0.15
p4840
aV2016-10-16 21:10:54
p4841
as(g24
g4
tp4842
(lp4843
V0.05
p4844
aV2016-10-16 21:25:42
p4845
as(g25
g14
tp4846
(lp4847
V0
p4848
aV2016-10-16 21:03:54
p4849
as(g38
g25
tp4850
(lp4851
V4*4
p4852
aV2016-10-17 23:54:58
p4853
assS'yuhan'
p4854
(dp4855
(g3
g4
tp4856
(lp4857
V13
p4858
aV2016-10-18 19:51:02
p4859
as(g4
g4
tp4860
(lp4861
V0.15
p4862
aV2016-10-18 03:21:07
p4863
as(g13
g14
tp4864
(lp4865
V1-3/C(52-7,2)*2
p4866
aV2016-10-18 04:57:48
p4867
as(g19
g4
tp4868
(lp4869
VC(52,5)-C(52-12,5)
p4870
aV2016-10-18 04:23:47
p4871
as(g24
g25
tp4872
(lp4873
V0.03
p4874
aV2016-10-18 03:42:55
p4875
as(g14
g24
tp4876
(lp4877
V0.93/10000/(0.93/10000 + 0.1*9999/100000)
p4878
aV2016-10-18 03:37:46
p4879
as(g25
g4
tp4880
(lp4881
V0.8
p4882
aV2016-10-18 03:14:13
p4883
as(g3
g38
tp4884
(lp4885
V1+2+3+4+5+6
p4886
aV2016-10-18 19:51:02
p4887
as(g4
g14
tp4888
(lp4889
V0.15
p4890
aV2016-10-18 03:21:07
p4891
as(g38
g24
tp4892
(lp4893
V(16+C(47,2) - C(43,2))/C(47,2)
p4894
aV2016-10-18 03:59:31
p4895
as(g4
g38
tp4896
(lp4897
V3/5
p4898
aV2016-10-18 03:21:07
p4899
as(g3
g25
tp4900
(lp4901
V14
p4902
aV2016-10-18 19:51:02
p4903
as(g19
g25
tp4904
(lp4905
VC(52-20,5)-C(52-32,5)
p4906
aV2016-10-18 04:23:47
p4907
as(g14
g14
tp4908
(lp4909
V0.93/10000
p4910
aV2016-10-18 03:37:46
p4911
as(g38
g14
tp4912
(lp4913
VC(47,2)
p4914
aV2016-10-18 03:59:31
p4915
as(g3
g24
tp4916
(lp4917
V3
p4918
aV2016-10-18 19:51:02
p4919
as(g4
g19
tp4920
(lp4921
V1
p4922
aV2016-10-18 03:21:07
p4923
as(g24
g4
tp4924
(lp4925
V0.05
p4926
aV2016-10-18 03:42:55
p4927
as(g13
g25
tp4928
(lp4929
V3
p4930
aV2016-10-18 04:57:48
p4931
as(g25
g25
tp4932
(lp4933
V0.4
p4934
aV2016-10-18 03:14:13
p4935
as(g91
g25
tp4936
(lp4937
VC(4,1)*C(8,1)
p4938
aV2016-10-18 04:01:35
p4939
as(g14
g4
tp4940
(lp4941
V0.93/10000 + 0.1*9999/100000
p4942
aV2016-10-18 03:37:46
p4943
as(g38
g4
tp4944
(lp4945
VC(47,2) - C(43,2)
p4946
aV2016-10-18 03:59:31
p4947
as(g24
g14
tp4948
(lp4949
V3/5
p4950
aV2016-10-18 03:42:55
p4951
as(g91
g4
tp4952
(lp4953
VC(4,1)*C(8,1)/C(47,2)
p4954
aV2016-10-18 04:01:35
p4955
as(g3
g14
tp4956
(lp4957
VP(14,2)
p4958
aV2016-10-18 19:51:02
p4959
as(g4
g25
tp4960
(lp4961
V0.15
p4962
aV2016-10-18 03:21:07
p4963
as(g13
g4
tp4964
(lp4965
V1-3/C(52-7,2)
p4966
aV2016-10-18 04:57:48
p4967
as(g14
g25
tp4968
(lp4969
V1/10000
p4970
aV2016-10-18 03:37:46
p4971
as(g19
g14
tp4972
(lp4973
V(C(52-20,5)-C(52-32,5))/(C(52,5)-C(52-12,5))
p4974
aV2016-10-18 04:23:47
p4975
as(g3
g91
tp4976
(lp4977
V21/P(14,2)
p4978
aV2016-10-18 19:51:02
p4979
as(g4
g91
tp4980
(lp4981
V0.15
p4982
aV2016-10-18 03:21:07
p4983
as(g4
g24
tp4984
(lp4985
V3/7
p4986
aV2016-10-18 03:21:07
p4987
as(g25
g14
tp4988
(lp4989
V0
p4990
aV2016-10-18 03:14:13
p4991
as(g38
g25
tp4992
(lp4993
V16
p4994
aV2016-10-18 03:59:31
p4995
assS'lmfink'
p4996
(dp4997
(g3
g4
tp4998
(lp4999
V12
p5000
aV2016-10-17 20:16:26
p5001
as(g4
g4
tp5002
(lp5003
V.35 + .35 - .5
p5004
aV2016-10-17 01:31:20
p5005
as(g13
g14
tp5006
(lp5007
V987/990 * 900/903
p5008
aV2016-10-17 19:56:08
p5009
as(g19
g4
tp5010
(lp5011
V1940952
p5012
aV2016-10-17 19:50:51
p5013
as(g24
g25
tp5014
(lp5015
V.03
p5016
aV2016-10-17 01:43:57
p5017
as(g14
g24
tp5018
(lp5019
V0.00921521997622
p5020
aV2016-10-17 01:38:48
p5021
as(g25
g4
tp5022
(lp5023
V1
p5024
aV2016-10-17 01:26:13
p5025
as(g3
g38
tp5026
(lp5027
V15
p5028
aV2016-10-17 20:16:26
p5029
as(g4
g14
tp5030
(lp5031
V.4 + .35 - .55
p5032
aV2016-10-17 01:31:20
p5033
as(g38
g24
tp5034
(lp5035
V(16+43*4+6) /1081
p5036
aV2016-10-17 19:42:21
p5037
as(g4
g38
tp5038
(lp5039
V.2/.4
p5040
aV2016-10-17 01:31:20
p5041
as(g3
g25
tp5042
(lp5043
V13
p5044
aV2016-10-17 20:16:26
p5045
as(g19
g25
tp5046
(lp5047
V185872
p5048
aV2016-10-17 19:50:51
p5049
as(g14
g14
tp5050
(lp5051
V0.000093
p5052
aV2016-10-17 01:38:48
p5053
as(g38
g14
tp5054
(lp5055
V1081
p5056
aV2016-10-17 19:42:21
p5057
as(g3
g24
tp5058
(lp5059
V1
p5060
aV2016-10-17 20:16:26
p5061
as(g4
g19
tp5062
(lp5063
V.2/.2
p5064
aV2016-10-17 01:31:20
p5065
as(g24
g4
tp5066
(lp5067
V.05
p5068
aV2016-10-17 01:43:57
p5069
as(g13
g25
tp5070
(lp5071
V3
p5072
aV2016-10-17 19:56:08
p5073
as(g25
g25
tp5074
(lp5075
V.3
p5076
aV2016-10-17 01:26:13
p5077
as(g91
g25
tp5078
(lp5079
V4 * 8
p5080
aV2016-10-17 19:45:10
p5081
as(g14
g4
tp5082
(lp5083
V0.010092
p5084
aV2016-10-17 01:38:48
p5085
as(g38
g4
tp5086
(lp5087
V43 * 4 + 6
p5088
aV2016-10-17 19:42:21
p5089
as(g24
g14
tp5090
(lp5091
V.03/.05
p5092
aV2016-10-17 01:43:57
p5093
as(g91
g4
tp5094
(lp5095
V4*8 / 1081
p5096
aV2016-10-17 19:45:10
p5097
as(g3
g14
tp5098
(lp5099
V13 * 12
p5100
aV2016-10-17 20:16:26
p5101
as(g4
g25
tp5102
(lp5103
V.4 + .35 - .55
p5104
aV2016-10-17 01:31:20
p5105
as(g13
g4
tp5106
(lp5107
V987/990
p5108
aV2016-10-17 19:56:08
p5109
as(g14
g25
tp5110
(lp5111
V.0001
p5112
aV2016-10-17 01:38:48
p5113
as(g19
g14
tp5114
(lp5115
V185872 / 1940952
p5116
aV2016-10-17 19:50:51
p5117
as(g3
g91
tp5118
(lp5119
V15 / (13*12)
p5120
aV2016-10-17 20:16:26
p5121
as(g4
g91
tp5122
(lp5123
V.4+.35+.35-.55-.55-.5 + .7
p5124
aV2016-10-17 01:31:20
p5125
as(g4
g24
tp5126
(lp5127
V.2/.35
p5128
aV2016-10-17 01:31:20
p5129
as(g25
g14
tp5130
(lp5131
V0
p5132
aV2016-10-17 01:26:13
p5133
as(g38
g25
tp5134
(lp5135
V16
p5136
aV2016-10-17 19:42:21
p5137
assS'Shiyuc'
p5138
(dp5139
(g25
g4
tp5140
(lp5141
V0.5/0.5
p5142
aV2016-10-19 00:14:30
p5143
as(g25
g25
tp5144
(lp5145
V0.5+0.5-0.5
p5146
aV2016-10-19 00:14:30
p5147
as(g25
g14
tp5148
(lp5149
V0
p5150
aV2016-10-19 00:14:30
p5151
assS'mbland'
p5152
(dp5153
(g3
g4
tp5154
(lp5155
V11
p5156
aV2016-10-18 02:41:00
p5157
as(g4
g4
tp5158
(lp5159
V0.1
p5160
aV2016-10-17 20:27:40
p5161
as(g13
g14
tp5162
(lp5163
V1 - ((3/C(43,2)) * 2)
p5164
aV2016-10-17 22:46:35
p5165
as(g19
g4
tp5166
(lp5167
VC(52,5) - C(52 - 4*3,5) 
p5168
aV2016-10-17 22:35:15
p5169
as(g24
g25
tp5170
(lp5171
V0.07*0.5
p5172
aV2016-10-17 20:38:22
p5173
as(g14
g24
tp5174
(lp5175
V((92/100)*(1/10000))/((92/100)*(1/10000) + (2/100)*(9999/10000))
p5176
aV2016-10-17 20:35:44
p5177
as(g25
g4
tp5178
(lp5179
V0.8
p5180
aV2016-10-17 20:23:43
p5181
as(g3
g38
tp5182
(lp5183
V1+2+3+4
p5184
aV2016-10-18 02:41:00
p5185
as(g4
g14
tp5186
(lp5187
V0.1
p5188
aV2016-10-17 20:27:40
p5189
as(g38
g24
tp5190
(lp5191
V(4*4 + 4*43 + C(4,2) ) / C(47,2) 
p5192
aV2016-10-17 22:17:29
p5193
as(g4
g38
tp5194
(lp5195
V0.5
p5196
aV2016-10-17 20:27:40
p5197
as(g3
g25
tp5198
(lp5199
V12
p5200
aV2016-10-18 02:41:00
p5201
as(g19
g25
tp5202
(lp5203
VC(4*8, 5) - C(4*5, 5)
p5204
aV2016-10-17 22:35:15
p5205
as(g14
g14
tp5206
(lp5207
V(92/100)*(1/10000)
p5208
aV2016-10-17 20:35:44
p5209
as(g38
g14
tp5210
(lp5211
VC(47,2)
p5212
aV2016-10-17 22:17:29
p5213
as(g3
g24
tp5214
(lp5215
V2
p5216
aV2016-10-18 02:41:00
p5217
as(g4
g19
tp5218
(lp5219
V1
p5220
aV2016-10-17 20:27:40
p5221
as(g24
g4
tp5222
(lp5223
V0.07*0.5 + 0.04 * 0.5
p5224
aV2016-10-17 20:38:22
p5225
as(g13
g25
tp5226
(lp5227
V3
p5228
aV2016-10-17 22:46:35
p5229
as(g25
g25
tp5230
(lp5231
V0.4
p5232
aV2016-10-17 20:23:43
p5233
as(g91
g25
tp5234
(lp5235
V(4*8)
p5236
aV2016-10-17 22:19:49
p5237
as(g14
g4
tp5238
(lp5239
V(92/100)*(1/10000) + (2/100)*(9999/10000)
p5240
aV2016-10-17 20:35:44
p5241
as(g38
g4
tp5242
(lp5243
V4*43 + C(4,2)
p5244
aV2016-10-17 22:17:29
p5245
as(g24
g14
tp5246
(lp5247
V(0.07*0.5) / (0.07*0.5 + 0.04 * 0.5)
p5248
aV2016-10-17 20:38:22
p5249
as(g91
g4
tp5250
(lp5251
V(4*8)/C(47,2)
p5252
aV2016-10-17 22:19:49
p5253
as(g3
g14
tp5254
(lp5255
V12*11
p5256
aV2016-10-18 02:41:00
p5257
as(g4
g25
tp5258
(lp5259
V0.1
p5260
aV2016-10-17 20:27:40
p5261
as(g13
g4
tp5262
(lp5263
V1 - 3/C(45,2)
p5264
aV2016-10-17 22:46:35
p5265
as(g14
g25
tp5266
(lp5267
V1/10000
p5268
aV2016-10-17 20:35:44
p5269
as(g19
g14
tp5270
(lp5271
V(C(4*8, 5) - C(4*5, 5))/(C(52,5) - C(52 - 4*3,5) )
p5272
aV2016-10-17 22:35:15
p5273
as(g3
g91
tp5274
(lp5275
V(1+2+3+4)/(12*11)
p5276
aV2016-10-18 02:41:00
p5277
as(g4
g91
tp5278
(lp5279
V0.1
p5280
aV2016-10-17 20:27:40
p5281
as(g4
g24
tp5282
(lp5283
V0.5
p5284
aV2016-10-17 20:27:40
p5285
as(g25
g14
tp5286
(lp5287
V0
p5288
aV2016-10-17 20:23:43
p5289
as(g38
g25
tp5290
(lp5291
V4*4
p5292
aV2016-10-17 22:17:29
p5293
assS'kballew00'
p5294
(dp5295
(g4
g4
tp5296
(lp5297
V0.3+0.3-0.45
p5298
aV2016-10-18 16:43:15
p5299
as(g24
g25
tp5300
(lp5301
V0.07*0.5
p5302
aV2016-10-18 19:16:34
p5303
as(g14
g24
tp5304
(lp5305
V(0.94/10000)/(0.94/10000+0.02*(1-1/10000))
p5306
aV2016-10-18 19:13:18
p5307
as(g25
g4
tp5308
(lp5309
V1
p5310
aV2016-10-18 16:29:59
p5311
as(g4
g14
tp5312
(lp5313
V0.3+0.3-0.45
p5314
aV2016-10-18 16:43:15
p5315
as(g38
g24
tp5316
(lp5317
V(4*4+C(4,2)+4*43)/C(47,2)
p5318
aV2016-10-18 19:37:48
p5319
as(g24
g14
tp5320
(lp5321
V(0.07*0.5)/(0.07*0.5+0.04*0.5)
p5322
aV2016-10-18 19:16:34
p5323
as(g19
g25
tp5324
(lp5325
V12*C(31,4)
p5326
aV2016-10-18 20:36:46
p5327
as(g14
g14
tp5328
(lp5329
V0.94/10000
p5330
aV2016-10-18 19:13:18
p5331
as(g38
g14
tp5332
(lp5333
VC(47,2)
p5334
aV2016-10-18 19:37:48
p5335
as(g4
g24
tp5336
(lp5337
V(0.3+0.3-0.45)/0.3
p5338
aV2016-10-18 16:43:15
p5339
as(g25
g25
tp5340
(lp5341
V0.5
p5342
aV2016-10-18 16:29:59
p5343
as(g91
g25
tp5344
(lp5345
V4*4-1+4*4-1
p5346
aV2016-10-18 20:42:07
p5347
as(g38
g25
tp5348
(lp5349
V4*4
p5350
aV2016-10-18 19:37:48
p5351
as(g14
g4
tp5352
(lp5353
V0.94/10000+0.02*(1-1/10000)
p5354
aV2016-10-18 19:13:18
p5355
as(g38
g4
tp5356
(lp5357
VC(4,2)+4*43
p5358
aV2016-10-18 19:37:48
p5359
as(g4
g38
tp5360
(lp5361
V(0.3+0.3-0.45)/0.3
p5362
aV2016-10-18 16:43:15
p5363
as(g4
g25
tp5364
(lp5365
V0.3+0.3-0.45
p5366
aV2016-10-18 16:43:15
p5367
as(g14
g25
tp5368
(lp5369
V1/10000
p5370
aV2016-10-18 19:13:18
p5371
as(g4
g91
tp5372
(lp5373
V0.65-0.3-0.3-0.3+(0.3+0.3-0.45)+(0.3+0.3-0.45)+(0.3+0.3-0.45)
p5374
aV2016-10-18 16:43:15
p5375
as(g24
g4
tp5376
(lp5377
V0.07*0.5+0.04*0.5
p5378
aV2016-10-18 19:16:34
p5379
as(g25
g14
tp5380
(lp5381
V0
p5382
aV2016-10-18 16:29:59
p5383
as(g4
g19
tp5384
(lp5385
V(0.65-0.3-0.3-0.3+(0.3+0.3-0.45)+(0.3+0.3-0.45)+(0.3+0.3-0.45))/(0.3+0.3-0.45)
p5386
aV2016-10-18 16:43:15
p5387
assS'ryanguyen'
p5388
(dp5389
(g25
g4
tp5390
(lp5391
V0.2
p5392
aV2016-10-18 02:18:19
p5393
as(g25
g25
tp5394
(lp5395
V0.08
p5396
aV2016-10-18 02:18:19
p5397
as(g25
g14
tp5398
(lp5399
V0
p5400
aV2016-10-18 02:18:19
p5401
assS'christywong'
p5402
(dp5403
(g4
g4
tp5404
(lp5405
V0.35+0.25-0.5
p5406
aV2016-10-18 03:38:50
p5407
as(g13
g14
tp5408
(lp5409
V(1-(3/C(52-7,2)))*(1-(3/C(52-9,2)))
p5410
aV2016-10-18 18:23:06
p5411
as(g19
g4
tp5412
(lp5413
VC(52,5)-C(40,5)
p5414
aV2016-10-18 17:58:52
p5415
as(g24
g25
tp5416
(lp5417
V(0.06)*(0.5)
p5418
aV2016-10-18 03:51:13
p5419
as(g14
g24
tp5420
(lp5421
V((93/100)*(1/10000))/((93/100)*(1/10000)+(1/100)*(1-(1/10000)))
p5422
aV2016-10-18 03:45:40
p5423
as(g25
g4
tp5424
(lp5425
V0.2
p5426
aV2016-10-18 03:28:08
p5427
as(g4
g14
tp5428
(lp5429
V0.25+0.25-0.4
p5430
aV2016-10-18 03:38:50
p5431
as(g38
g24
tp5432
(lp5433
V(C(4,1)*C(4,1)+(C(52-5,2)-C(52-5-4,2)))/C(47,2)
p5434
aV2016-10-18 17:23:52
p5435
as(g24
g14
tp5436
(lp5437
V((0.06)*(0.5))/((0.06*0.5)+(0.03*0.5))
p5438
aV2016-10-18 03:51:13
p5439
as(g19
g25
tp5440
(lp5441
VC(32,5)-C(32-12,5)
p5442
aV2016-10-18 17:58:52
p5443
as(g14
g14
tp5444
(lp5445
V(93/100)*(1/10000)
p5446
aV2016-10-18 03:45:40
p5447
as(g38
g14
tp5448
(lp5449
VC(47,2)
p5450
aV2016-10-18 17:23:52
p5451
as(g4
g19
tp5452
(lp5453
V(0.55-0.25-0.35-0.25+(0.25+0.35-0.45)+(0.35+0.25-0.5)+(0.25+0.25-0.4))/(0.35+0.25-0.5)
p5454
aV2016-10-18 03:38:50
p5455
as(g4
g24
tp5456
(lp5457
V(0.25+0.35-0.45)/(0.35)
p5458
aV2016-10-18 03:38:50
p5459
as(g13
g25
tp5460
(lp5461
V3
p5462
aV2016-10-18 18:23:06
p5463
as(g25
g25
tp5464
(lp5465
V0.02
p5466
aV2016-10-18 03:28:08
p5467
as(g91
g25
tp5468
(lp5469
VC(4,1)*C(8,1)
p5470
aV2016-10-18 17:31:53
p5471
as(g14
g4
tp5472
(lp5473
V(93/100)*(1/10000)+(1/100)*(1-(1/10000))
p5474
aV2016-10-18 03:45:40
p5475
as(g38
g4
tp5476
(lp5477
VC(52-5,2)-C(52-5-4,2)
p5478
aV2016-10-18 17:23:52
p5479
as(g4
g38
tp5480
(lp5481
V(0.25+0.35-0.45)/(0.25)
p5482
aV2016-10-18 03:38:50
p5483
as(g91
g4
tp5484
(lp5485
V(C(4,1)*C(8,1))/C(47,2)
p5486
aV2016-10-18 17:31:53
p5487
as(g4
g25
tp5488
(lp5489
V0.25+0.35-0.45
p5490
aV2016-10-18 03:38:50
p5491
as(g13
g4
tp5492
(lp5493
V1-(3/C(52-7,2))
p5494
aV2016-10-18 18:23:06
p5495
as(g14
g25
tp5496
(lp5497
V1/10000
p5498
aV2016-10-18 03:45:40
p5499
as(g19
g14
tp5500
(lp5501
V(C(32,5)-C(32-12,5))/(C(52,5)-C(40,5))
p5502
aV2016-10-18 17:58:52
p5503
as(g4
g91
tp5504
(lp5505
V0.55-0.25-0.35-0.25+(0.25+0.35-0.45)+(0.35+0.25-0.5)+(0.25+0.25-0.4)
p5506
aV2016-10-18 03:38:50
p5507
as(g24
g4
tp5508
(lp5509
V(0.06*0.5)+(0.03*0.5)
p5510
aV2016-10-18 03:51:13
p5511
as(g25
g14
tp5512
(lp5513
V1
p5514
aV2016-10-18 03:28:08
p5515
as(g38
g25
tp5516
(lp5517
VC(4,1)*C(4,1)
p5518
aV2016-10-18 17:23:52
p5519
assS'RobinO'
p5520
(dp5521
(g3
g4
tp5522
(lp5523
V11
p5524
aV2016-10-18 03:53:51
p5525
as(g4
g4
tp5526
(lp5527
V.3+.35-.45
p5528
aV2016-10-16 05:38:51
p5529
as(g19
g4
tp5530
(lp5531
V(3*4*51*50*49*48)/(5!)
p5532
aV2016-10-18 04:06:51
p5533
as(g24
g25
tp5534
(lp5535
V.07*.5
p5536
aV2016-10-16 05:54:00
p5537
as(g14
g24
tp5538
(lp5539
V((95/100)*(1/10000))/((1/10000)*(95/100)+(1/100)*(9999/10000))
p5540
aV2016-10-16 05:46:16
p5541
as(g25
g4
tp5542
(lp5543
V(.5+.3-.65)/.3
p5544
aV2016-10-16 05:32:27
p5545
as(g3
g38
tp5546
(lp5547
V1+2+3+4+5+6
p5548
aV2016-10-18 03:53:51
p5549
as(g4
g14
tp5550
(lp5551
V.35+.35-.5
p5552
aV2016-10-16 05:38:51
p5553
as(g24
g14
tp5554
(lp5555
V(.07*.5)/((.07*.5)+(.04*.5))
p5556
aV2016-10-16 05:54:00
p5557
as(g3
g25
tp5558
(lp5559
V12
p5560
aV2016-10-18 03:53:51
p5561
as(g14
g14
tp5562
(lp5563
V(95/100)*(1/10000)
p5564
aV2016-10-16 05:46:16
p5565
as(g38
g14
tp5566
(lp5567
V47!/(45!*2!)
p5568
aV2016-10-18 03:37:50
p5569
as(g3
g24
tp5570
(lp5571
V3
p5572
aV2016-10-18 03:53:51
p5573
as(g4
g24
tp5574
(lp5575
V(.35+.3-.5)/.3
p5576
aV2016-10-16 05:38:51
p5577
as(g25
g25
tp5578
(lp5579
V.5+.3-.65
p5580
aV2016-10-16 05:32:27
p5581
as(g91
g25
tp5582
(lp5583
V4*8
p5584
aV2016-10-18 03:42:25
p5585
as(g14
g4
tp5586
(lp5587
V(1/10000)*(95/100)+(1/100)*(9999/10000)
p5588
aV2016-10-16 05:46:16
p5589
as(g4
g38
tp5590
(lp5591
V(.35+.3-.5)/.35
p5592
aV2016-10-16 05:38:51
p5593
as(g91
g4
tp5594
(lp5595
V(4*8)/(47!/(2!*45!))
p5596
aV2016-10-18 03:42:25
p5597
as(g3
g14
tp5598
(lp5599
V12*11
p5600
aV2016-10-18 03:53:51
p5601
as(g4
g25
tp5602
(lp5603
V.35+.3-.5
p5604
aV2016-10-16 05:38:51
p5605
as(g14
g25
tp5606
(lp5607
V1/10000
p5608
aV2016-10-16 05:46:16
p5609
as(g3
g91
tp5610
(lp5611
V(1+2+3+4+5+6)/(12*11)
p5612
aV2016-10-18 03:53:51
p5613
as(g4
g91
tp5614
(lp5615
V.65-.35-.3-.35+(.35+.3-.5)+(.3+.35-.45)+(.35+.35-.5)
p5616
aV2016-10-16 05:38:51
p5617
as(g24
g4
tp5618
(lp5619
V(.07*.5)+(.04*.5)
p5620
aV2016-10-16 05:54:00
p5621
as(g25
g14
tp5622
(lp5623
V1
p5624
aV2016-10-16 05:32:27
p5625
as(g4
g19
tp5626
(lp5627
V(.65-.35-.3-.35+(.35+.3-.5)+(.3+.35-.45)+(.35+.35-.5))/(.3+.35-.45)
p5628
aV2016-10-16 05:38:51
p5629
assS'ThucPhan'
p5630
(dp5631
(g13
g14
tp5632
(lp5633
V(1-3/C(52-7,2))*(1-3/C(52-9,2))
p5634
aV2016-10-18 23:43:47
p5635
as(g19
g4
tp5636
(lp5637
VC(52,5)-C(40,5)
p5638
aV2016-10-18 23:41:50
p5639
as(g24
g25
tp5640
(lp5641
V0.06*0.5
p5642
aV2016-10-18 23:04:53
p5643
as(g14
g24
tp5644
(lp5645
V((93/100)/10000)/((93/100)*0.0001+ (1/100)*0.9999)
p5646
aV2016-10-18 21:22:15
p5647
as(g25
g4
tp5648
(lp5649
V0.5
p5650
aV2016-10-16 02:12:23
p5651
as(g38
g24
tp5652
(lp5653
V(C(52-5,2)-C(52-5-4,2)+4^2)/(C(52-5,2))
p5654
aV2016-10-18 23:24:25
p5655
as(g19
g25
tp5656
(lp5657
VC(32,5)-C(20,5)
p5658
aV2016-10-18 23:41:50
p5659
as(g14
g14
tp5660
(lp5661
V(93/100)*0.0001
p5662
aV2016-10-18 21:22:15
p5663
as(g38
g14
tp5664
(lp5665
VC(47,2)
p5666
aV2016-10-18 23:24:25
p5667
as(g24
g4
tp5668
(lp5669
V0.06*0.5+0.03*0.5
p5670
aV2016-10-18 23:04:53
p5671
as(g13
g25
tp5672
(lp5673
V3
p5674
aV2016-10-18 23:43:47
p5675
as(g25
g25
tp5676
(lp5677
V0.25
p5678
aV2016-10-16 02:12:23
p5679
as(g91
g25
tp5680
(lp5681
V4*8
p5682
aV2016-10-18 23:40:46
p5683
as(g14
g4
tp5684
(lp5685
V(93/100)*0.0001+ (1/100)*0.9999
p5686
aV2016-10-18 21:22:15
p5687
as(g38
g4
tp5688
(lp5689
VC(52-5,2)-C(52-5-4,2)
p5690
aV2016-10-18 23:24:25
p5691
as(g24
g14
tp5692
(lp5693
V(0.06*0.5)/(0.06*0.5+0.03*0.5)
p5694
aV2016-10-18 23:04:53
p5695
as(g91
g4
tp5696
(lp5697
V(4*8)/(C(52-5,2))
p5698
aV2016-10-18 23:40:46
p5699
as(g13
g4
tp5700
(lp5701
V1-3/C(52-7,2)
p5702
aV2016-10-18 23:43:47
p5703
as(g14
g25
tp5704
(lp5705
V1/10000
p5706
aV2016-10-18 21:22:15
p5707
as(g19
g14
tp5708
(lp5709
V(C(32,5)-C(20,5))/(C(52,5)-C(40,5))
p5710
aV2016-10-18 23:41:50
p5711
as(g25
g14
tp5712
(lp5713
V1
p5714
aV2016-10-16 02:12:23
p5715
as(g38
g25
tp5716
(lp5717
V4^2
p5718
aV2016-10-18 23:24:25
p5719
assS'Melvinw'
p5720
(dp5721
(g4
g14
tp5722
(lp5723
V0.35+0.35-0.5
p5724
aV2016-10-18 07:14:49
p5725
as(g25
g25
tp5726
(lp5727
V0.5*0.3
p5728
aV2016-10-18 06:23:05
p5729
as(g4
g4
tp5730
(lp5731
V0.3+0.35-0.45
p5732
aV2016-10-18 07:14:49
p5733
as(g4
g25
tp5734
(lp5735
V0.35+0.3-0.5
p5736
aV2016-10-18 07:14:49
p5737
as(g4
g38
tp5738
(lp5739
V(0.35+0.3-0.5)/0.35
p5740
aV2016-10-18 07:14:49
p5741
as(g25
g14
tp5742
(lp5743
V1
p5744
aV2016-10-18 06:23:05
p5745
as(g14
g25
tp5746
(lp5747
V1/10000
p5748
aV2016-10-18 07:00:28
p5749
as(g14
g4
tp5750
(lp5751
V(93/100)*(1/10000)+(2/100)*(9999/10000)
p5752
aV2016-10-18 07:00:28
p5753
as(g24
g25
tp5754
(lp5755
V(6/100)*(1/2)
p5756
aV2016-10-18 07:49:29
p5757
as(g14
g14
tp5758
(lp5759
V(1/10000)*(93/100)
p5760
aV2016-10-18 07:00:28
p5761
as(g4
g91
tp5762
(lp5763
V0.65-0.35-0.3-0.35+0.35+0.3-0.5+0.3+0.35-0.45+0.35+0.35-0.5
p5764
aV2016-10-18 07:14:49
p5765
as(g14
g24
tp5766
(lp5767
V(93/100)*(1/10000)/((93/100)*(1/10000)+(2/100)*(9999/10000))
p5768
aV2016-10-18 07:00:28
p5769
as(g4
g24
tp5770
(lp5771
V(0.35+0.3-0.5)/0.3
p5772
aV2016-10-18 07:14:49
p5773
as(g24
g14
tp5774
(lp5775
V(6/100)*(1/2)/((6/100)*(1/2)+(4/100)*(1/2))
p5776
aV2016-10-18 07:49:29
p5777
as(g25
g4
tp5778
(lp5779
V(0.5*0.3)/0.3
p5780
aV2016-10-18 06:23:05
p5781
as(g4
g19
tp5782
(lp5783
V(0.65-0.35-0.3-0.35+0.35+0.3-0.5+0.3+0.35-0.45+0.35+0.35-0.5)/(0.3+0.35-0.45)
p5784
aV2016-10-18 07:14:49
p5785
as(g24
g4
tp5786
(lp5787
V(6/100)*(1/2)+(4/100)*(1/2)
p5788
aV2016-10-18 07:49:29
p5789
assS'mvkrishn'
p5790
(dp5791
(g4
g4
tp5792
(lp5793
V.1
p5794
aV2016-10-17 23:14:42
p5795
as(g19
g4
tp5796
(lp5797
VC(52, 5) - C(40, 5)
p5798
aV2016-10-18 00:18:30
p5799
as(g24
g25
tp5800
(lp5801
V.07*.5
p5802
aV2016-10-17 23:26:42
p5803
as(g14
g24
tp5804
(lp5805
V.009321698
p5806
aV2016-10-17 23:24:17
p5807
as(g25
g4
tp5808
(lp5809
V1
p5810
aV2016-10-17 21:23:47
p5811
as(g4
g14
tp5812
(lp5813
V.1
p5814
aV2016-10-17 23:14:42
p5815
as(g38
g24
tp5816
(lp5817
V(C(47,2) - C(43,2) + 4*4)/C(47,2)
p5818
aV2016-10-17 23:46:19
p5819
as(g24
g14
tp5820
(lp5821
V.07*.5/(.07*.5 + .04*.5)
p5822
aV2016-10-17 23:26:42
p5823
as(g19
g25
tp5824
(lp5825
VC(32, 5) - C(20, 5)
p5826
aV2016-10-18 00:18:30
p5827
as(g14
g14
tp5828
(lp5829
V.94*.0001
p5830
aV2016-10-17 23:24:17
p5831
as(g38
g14
tp5832
(lp5833
VC(47,2)
p5834
aV2016-10-17 23:46:19
p5835
as(g4
g19
tp5836
(lp5837
V.5
p5838
aV2016-10-17 23:14:42
p5839
as(g4
g24
tp5840
(lp5841
V.15/.35
p5842
aV2016-10-17 23:14:42
p5843
as(g25
g25
tp5844
(lp5845
V.1
p5846
aV2016-10-17 21:23:47
p5847
as(g91
g25
tp5848
(lp5849
V32
p5850
aV2016-10-17 23:56:18
p5851
as(g14
g4
tp5852
(lp5853
V.94*.0001 + .01*.999
p5854
aV2016-10-17 23:24:17
p5855
as(g38
g4
tp5856
(lp5857
VC(47,2) - C(43,2)
p5858
aV2016-10-17 23:46:19
p5859
as(g4
g38
tp5860
(lp5861
V.5
p5862
aV2016-10-17 23:14:42
p5863
as(g91
g4
tp5864
(lp5865
V32/C(47,2)
p5866
aV2016-10-17 23:56:18
p5867
as(g4
g25
tp5868
(lp5869
V.15
p5870
aV2016-10-17 23:14:42
p5871
as(g14
g25
tp5872
(lp5873
V.0001
p5874
aV2016-10-17 23:24:17
p5875
as(g19
g14
tp5876
(lp5877
V(C(32, 5) - C(20, 5))/(C(52, 5) - C(40, 5))
p5878
aV2016-10-18 00:18:30
p5879
as(g4
g91
tp5880
(lp5881
V.05
p5882
aV2016-10-17 23:14:42
p5883
as(g24
g4
tp5884
(lp5885
V.07*.5 + .04*.5
p5886
aV2016-10-17 23:26:42
p5887
as(g25
g14
tp5888
(lp5889
V0
p5890
aV2016-10-17 21:23:47
p5891
as(g38
g25
tp5892
(lp5893
V4*4
p5894
aV2016-10-17 23:46:19
p5895
assS'KevinChrisayrton'
p5896
(dp5897
(g4
g14
tp5898
(lp5899
V0.25+0.3-0.4
p5900
aV2016-10-16 06:43:39
p5901
as(g25
g25
tp5902
(lp5903
V0.2
p5904
aV2016-10-16 06:39:46
p5905
as(g4
g4
tp5906
(lp5907
V0.25+0.3-0.4
p5908
aV2016-10-16 06:43:39
p5909
as(g4
g25
tp5910
(lp5911
V0.25+0.25-0.4
p5912
aV2016-10-16 06:43:39
p5913
as(g4
g19
tp5914
(lp5915
V(0.25+0.25+0.3-(0.25+0.25-0.4)-(0.25+0.3-0.4)-(0.25+0.3-0.4)+((0.25+0.25-0.4)/0.25)) / (0.25+0.3-0.4)
p5916
aV2016-10-16 06:43:39
p5917
as(g4
g91
tp5918
(lp5919
V0.25+0.25+0.3-(0.25+0.25-0.4)-(0.25+0.3-0.4)-(0.25+0.3-0.4)+((0.25+0.25-0.4)/0.25)
p5920
aV2016-10-16 06:43:39
p5921
as(g25
g4
tp5922
(lp5923
V1
p5924
aV2016-10-16 06:39:46
p5925
as(g4
g38
tp5926
(lp5927
V(0.25+0.25-0.4)/0.25
p5928
aV2016-10-16 06:43:39
p5929
as(g25
g14
tp5930
(lp5931
V0
p5932
aV2016-10-16 06:39:46
p5933
as(g4
g24
tp5934
(lp5935
V(0.25+0.25-0.4)/0.25
p5936
aV2016-10-16 06:43:39
p5937
assS'DannyDelCerro'
p5938
(dp5939
(g3
g4
tp5940
(lp5941
V12
p5942
aV2016-10-16 23:05:06
p5943
as(g4
g4
tp5944
(lp5945
V.15
p5946
aV2016-10-16 17:33:38
p5947
as(g13
g14
tp5948
(lp5949
V(1-(3/C(45,2)))(1-(3/C(43,2)))
p5950
aV2016-10-16 22:48:48
p5951
as(g19
g4
tp5952
(lp5953
VC(52,5)-C(40,5)
p5954
aV2016-10-16 22:22:59
p5955
as(g24
g25
tp5956
(lp5957
V((.07)*.5)
p5958
aV2016-10-16 18:05:30
p5959
as(g14
g24
tp5960
(lp5961
V(.94/10000)/((.94*(1/10000))+(.01)*(.9999))
p5962
aV2016-10-16 17:57:53
p5963
as(g25
g4
tp5964
(lp5965
V.2
p5966
aV2016-10-16 17:28:10
p5967
as(g3
g38
tp5968
(lp5969
V(14-7)(14-7-1)/2
p5970
aV2016-10-16 23:05:06
p5971
as(g4
g14
tp5972
(lp5973
V.3+.35-.5
p5974
aV2016-10-16 17:33:38
p5975
as(g38
g24
tp5976
(lp5977
V(C(4,2)+C(4,1)C(43,1)+C(4,1)C(4,1))/C(47,2)
p5978
aV2016-10-16 22:04:22
p5979
as(g4
g38
tp5980
(lp5981
V.15/.3
p5982
aV2016-10-16 17:33:38
p5983
as(g3
g25
tp5984
(lp5985
V13
p5986
aV2016-10-16 23:05:06
p5987
as(g19
g25
tp5988
(lp5989
VC(32,5)-C(20,5)
p5990
aV2016-10-16 22:22:59
p5991
as(g14
g14
tp5992
(lp5993
V(.94)/10000
p5994
aV2016-10-16 17:57:53
p5995
as(g38
g14
tp5996
(lp5997
VC(47,2)
p5998
aV2016-10-16 22:04:22
p5999
as(g3
g24
tp6000
(lp6001
V2
p6002
aV2016-10-16 23:05:06
p6003
as(g4
g19
tp6004
(lp6005
V(.3+.3+.35-.45-.5-.5+.6)/.15
p6006
aV2016-10-16 17:33:38
p6007
as(g24
g4
tp6008
(lp6009
V((.07)*.5)+(.04*.5)
p6010
aV2016-10-16 18:05:30
p6011
as(g13
g25
tp6012
(lp6013
V3
p6014
aV2016-10-16 22:48:48
p6015
as(g25
g25
tp6016
(lp6017
V.1
p6018
aV2016-10-16 17:28:10
p6019
as(g91
g25
tp6020
(lp6021
V(C(4,1)+C(4,1))C(4,1)
p6022
aV2016-10-16 22:12:56
p6023
as(g14
g4
tp6024
(lp6025
V((.94)*(1/10000))+((1/100)*(9999/10000))
p6026
aV2016-10-16 17:57:53
p6027
as(g38
g4
tp6028
(lp6029
VC(4,2)+C(4,1)C(43,1)
p6030
aV2016-10-16 22:04:22
p6031
as(g24
g14
tp6032
(lp6033
V(((.07)*.5))/(((.07)*.5)+(.04*.5))
p6034
aV2016-10-16 18:05:30
p6035
as(g91
g4
tp6036
(lp6037
V((C(4,1)+C(4,1))C(4,1))/C(47,2)
p6038
aV2016-10-16 22:12:56
p6039
as(g3
g14
tp6040
(lp6041
V13*12
p6042
aV2016-10-16 23:05:06
p6043
as(g4
g25
tp6044
(lp6045
V.15
p6046
aV2016-10-16 17:33:38
p6047
as(g13
g4
tp6048
(lp6049
V1-(3/C(47,2))
p6050
aV2016-10-16 22:48:48
p6051
as(g14
g25
tp6052
(lp6053
V1/10000
p6054
aV2016-10-16 17:57:53
p6055
as(g19
g14
tp6056
(lp6057
V(C(32,5)-C(20,5))/(C(52,5)-C(40,5))
p6058
aV2016-10-16 22:22:59
p6059
as(g3
g91
tp6060
(lp6061
V((14-7)(14-7-1)/2)/(13*12)
p6062
aV2016-10-16 23:05:06
p6063
as(g4
g91
tp6064
(lp6065
V.3+.3+.35-.45-.5-.5+.6
p6066
aV2016-10-16 17:33:38
p6067
as(g4
g24
tp6068
(lp6069
V.15/.3
p6070
aV2016-10-16 17:33:38
p6071
as(g25
g14
tp6072
(lp6073
V0
p6074
aV2016-10-16 17:28:10
p6075
as(g38
g25
tp6076
(lp6077
VC(4,1)C(4,1)
p6078
aV2016-10-16 22:04:22
p6079
assS'aliceh'
p6080
(dp6081
(g25
g25
tp6082
(lp6083
V.04
p6084
aV2016-10-17 08:07:44
p6085
assS'maddymanu'
p6086
(dp6087
(g3
g4
tp6088
(lp6089
V13
p6090
aV2016-10-18 23:49:05
p6091
as(g4
g4
tp6092
(lp6093
V0.25+0.3-0.45
p6094
aV2016-10-17 16:13:54
p6095
as(g13
g14
tp6096
(lp6097
V(1-3/C(52-7,2))*(1-3/C(52-9,2))
p6098
aV2016-10-17 21:35:54
p6099
as(g19
g4
tp6100
(lp6101
VC(52,5)-C(40,5)
p6102
aV2016-10-17 21:31:56
p6103
as(g24
g25
tp6104
(lp6105
V0.07*0.5
p6106
aV2016-10-16 19:43:27
p6107
as(g14
g24
tp6108
(lp6109
V(0.93/10000)/(0.93*0.0001+ 0.02*0.9999)
p6110
aV2016-10-16 19:41:03
p6111
as(g25
g4
tp6112
(lp6113
V0.3
p6114
aV2016-10-16 19:24:19
p6115
as(g3
g38
tp6116
(lp6117
V(15-3)*(15-3-1)/2
p6118
aV2016-10-18 23:49:05
p6119
as(g4
g14
tp6120
(lp6121
V0.2+0.3-0.4
p6122
aV2016-10-17 16:13:54
p6123
as(g38
g24
tp6124
(lp6125
V(C(52-5,2)-C(52-5-4,2)+4^2)/C(52-5,2)
p6126
aV2016-10-17 21:28:46
p6127
as(g4
g38
tp6128
(lp6129
V(0.2+0.25-0.35)/0.2
p6130
aV2016-10-17 16:13:54
p6131
as(g3
g25
tp6132
(lp6133
V14
p6134
aV2016-10-18 23:49:05
p6135
as(g19
g25
tp6136
(lp6137
VC(32,5)-C(20,5)
p6138
aV2016-10-17 21:31:56
p6139
as(g14
g14
tp6140
(lp6141
V(93/100)*(1/10000)
p6142
aV2016-10-16 19:41:03
p6143
as(g38
g14
tp6144
(lp6145
VC(47,2)
p6146
aV2016-10-17 21:28:46
p6147
as(g3
g24
tp6148
(lp6149
V7
p6150
aV2016-10-18 23:49:05
p6151
as(g4
g19
tp6152
(lp6153
V(0.5-0.2-0.25-0.3+(0.2+0.25-0.35)+(0.25+0.3-0.45)+(0.2+0.3-0.4))/(0.25+0.3-0.45)
p6154
aV2016-10-17 16:13:54
p6155
as(g24
g4
tp6156
(lp6157
V0.07*0.5+0.03*0.5
p6158
aV2016-10-16 19:43:27
p6159
as(g13
g25
tp6160
(lp6161
V3
p6162
aV2016-10-17 21:35:54
p6163
as(g25
g25
tp6164
(lp6165
V0.03
p6166
aV2016-10-16 19:24:19
p6167
as(g91
g25
tp6168
(lp6169
V32
p6170
aV2016-10-16 19:48:38
p6171
as(g14
g4
tp6172
(lp6173
V(93/100)*(1/10000)+(2/100)*(9999/10000)
p6174
aV2016-10-16 19:41:03
p6175
as(g38
g4
tp6176
(lp6177
VC(52-5,2)-C(52-5-4,2)
p6178
aV2016-10-17 21:28:46
p6179
as(g24
g14
tp6180
(lp6181
V(0.07*0.5)/(0.07*0.5+0.03*0.5)
p6182
aV2016-10-16 19:43:27
p6183
as(g91
g4
tp6184
(lp6185
V32/C(47,2)
p6186
aV2016-10-16 19:48:38
p6187
as(g3
g14
tp6188
(lp6189
V14*13
p6190
aV2016-10-18 23:49:05
p6191
as(g4
g25
tp6192
(lp6193
V0.2+0.25-0.35
p6194
aV2016-10-17 16:13:54
p6195
as(g13
g4
tp6196
(lp6197
V1-3/C(52-7,2)
p6198
aV2016-10-17 21:35:54
p6199
as(g14
g25
tp6200
(lp6201
V1/10000
p6202
aV2016-10-16 19:41:03
p6203
as(g19
g14
tp6204
(lp6205
V(C(32,5)-C(20,5))/(C(52,5)-C(40,5))
p6206
aV2016-10-17 21:31:56
p6207
as(g3
g91
tp6208
(lp6209
V(15-3)*(15-3-1)/2/((15-1)*(15-2))
p6210
aV2016-10-18 23:49:05
p6211
as(g4
g91
tp6212
(lp6213
V0.5-0.2-0.25-0.3+(0.2+0.25-0.35)+(0.25+0.3-0.45)+(0.2+0.3-0.4)
p6214
aV2016-10-17 16:13:54
p6215
as(g4
g24
tp6216
(lp6217
V(0.2+0.25-0.35)/0.25
p6218
aV2016-10-17 16:13:54
p6219
as(g25
g14
tp6220
(lp6221
V1
p6222
aV2016-10-16 19:24:19
p6223
as(g38
g25
tp6224
(lp6225
V4^2
p6226
aV2016-10-17 21:28:46
p6227
assS'Aidan'
p6228
(dp6229
(g4
g14
tp6230
(lp6231
V.1
p6232
aV2016-10-18 19:00:09
p6233
as(g25
g25
tp6234
(lp6235
V.02
p6236
aV2016-10-18 18:53:40
p6237
as(g4
g4
tp6238
(lp6239
V.1
p6240
aV2016-10-18 19:00:09
p6241
as(g4
g25
tp6242
(lp6243
V.15
p6244
aV2016-10-18 19:00:09
p6245
as(g4
g19
tp6246
(lp6247
V(0.5 -.25 - .25 - .2 + .15 + .1 + .1) / .1
p6248
aV2016-10-18 19:00:09
p6249
as(g4
g91
tp6250
(lp6251
V0.5 -.25 - .25 - .2 + .15 + .1 + .1
p6252
aV2016-10-18 19:00:09
p6253
as(g25
g4
tp6254
(lp6255
V.2
p6256
aV2016-10-18 18:53:40
p6257
as(g4
g38
tp6258
(lp6259
V.15/.25
p6260
aV2016-10-18 19:00:09
p6261
as(g25
g14
tp6262
(lp6263
V0
p6264
aV2016-10-18 18:53:40
p6265
as(g4
g24
tp6266
(lp6267
V.15/.25
p6268
aV2016-10-18 19:00:09
p6269
assS'sunilraiyani'
p6270
(dp6271
(g3
g4
tp6272
(lp6273
V11
p6274
aV2016-10-18 03:30:28
p6275
as(g4
g4
tp6276
(lp6277
V0.2
p6278
aV2016-10-16 20:04:42
p6279
as(g13
g14
tp6280
(lp6281
V(1-(3/C(45,2)))*(1-(3/C(45,2)))
p6282
aV2016-10-16 21:31:30
p6283
as(g19
g4
tp6284
(lp6285
VC(52,5)-C(40,5)
p6286
aV2016-10-16 21:22:46
p6287
as(g24
g25
tp6288
(lp6289
V0.07*0.5
p6290
aV2016-10-16 20:12:44
p6291
as(g14
g24
tp6292
(lp6293
V(0.95*0.0001)/(0.95*0.0001 + 0.02*0.9999)
p6294
aV2016-10-16 20:06:46
p6295
as(g25
g4
tp6296
(lp6297
V(0.3+0.2-0.38)/0.3
p6298
aV2016-10-16 19:48:38
p6299
as(g3
g38
tp6300
(lp6301
V21
p6302
aV2016-10-18 03:30:28
p6303
as(g4
g14
tp6304
(lp6305
V0.2
p6306
aV2016-10-16 20:04:42
p6307
as(g38
g24
tp6308
(lp6309
V(16+C(52-5,2)-C(52-5-4,2))/(C(47,2))
p6310
aV2016-10-16 20:41:25
p6311
as(g4
g38
tp6312
(lp6313
V0.2/0.35
p6314
aV2016-10-16 20:04:42
p6315
as(g3
g25
tp6316
(lp6317
V12
p6318
aV2016-10-18 03:30:28
p6319
as(g19
g25
tp6320
(lp6321
VC(32,5)-C(20,5)
p6322
aV2016-10-16 21:22:46
p6323
as(g14
g14
tp6324
(lp6325
V0.95*0.0001
p6326
aV2016-10-16 20:06:46
p6327
as(g38
g14
tp6328
(lp6329
VC(47,2)
p6330
aV2016-10-16 20:41:25
p6331
as(g3
g24
tp6332
(lp6333
V1
p6334
aV2016-10-18 03:30:28
p6335
as(g4
g19
tp6336
(lp6337
V0.2/0.2
p6338
aV2016-10-16 20:04:42
p6339
as(g24
g4
tp6340
(lp6341
V0.1*0.5
p6342
aV2016-10-16 20:12:44
p6343
as(g13
g25
tp6344
(lp6345
V3
p6346
aV2016-10-16 21:31:30
p6347
as(g25
g25
tp6348
(lp6349
V0.3+0.2-0.38
p6350
aV2016-10-16 19:48:38
p6351
as(g91
g25
tp6352
(lp6353
V4*8
p6354
aV2016-10-16 21:14:58
p6355
as(g14
g4
tp6356
(lp6357
V0.95*0.0001 + 0.02*0.9999
p6358
aV2016-10-16 20:06:46
p6359
as(g38
g4
tp6360
(lp6361
VC(52-5,2)-C(52-5-4,2)
p6362
aV2016-10-16 20:41:25
p6363
as(g24
g14
tp6364
(lp6365
V0.07/0.1
p6366
aV2016-10-16 20:12:44
p6367
as(g91
g4
tp6368
(lp6369
V(4*8)/(C(47,2))
p6370
aV2016-10-16 21:14:58
p6371
as(g3
g14
tp6372
(lp6373
V12*11
p6374
aV2016-10-18 03:30:28
p6375
as(g4
g25
tp6376
(lp6377
V0.2
p6378
aV2016-10-16 20:04:42
p6379
as(g13
g4
tp6380
(lp6381
V1-(3/C(45,2))
p6382
aV2016-10-16 21:31:30
p6383
as(g14
g25
tp6384
(lp6385
V1/10000
p6386
aV2016-10-16 20:06:46
p6387
as(g19
g14
tp6388
(lp6389
V(C(32,5)-C(20,5))/(C(52,5)-C(40,5))
p6390
aV2016-10-16 21:22:46
p6391
as(g3
g91
tp6392
(lp6393
V21/(12*11)
p6394
aV2016-10-18 03:30:28
p6395
as(g4
g91
tp6396
(lp6397
V0.6+0.6-1
p6398
aV2016-10-16 20:04:42
p6399
as(g4
g24
tp6400
(lp6401
V0.2/0.35
p6402
aV2016-10-16 20:04:42
p6403
as(g25
g14
tp6404
(lp6405
V0
p6406
aV2016-10-16 19:48:38
p6407
as(g38
g25
tp6408
(lp6409
V4*4
p6410
aV2016-10-16 20:41:25
p6411
assS'amt040'
p6412
(dp6413
(g4
g14
tp6414
(lp6415
V.2
p6416
aV2016-10-16 23:20:16
p6417
as(g25
g25
tp6418
(lp6419
V.09
p6420
aV2016-10-16 23:11:28
p6421
as(g4
g4
tp6422
(lp6423
V.2
p6424
aV2016-10-16 23:20:16
p6425
as(g4
g25
tp6426
(lp6427
V0.15
p6428
aV2016-10-16 23:20:16
p6429
as(g4
g19
tp6430
(lp6431
V1
p6432
aV2016-10-16 23:20:16
p6433
as(g4
g91
tp6434
(lp6435
V.2
p6436
aV2016-10-16 23:20:16
p6437
as(g25
g4
tp6438
(lp6439
V.3
p6440
aV2016-10-16 23:11:28
p6441
as(g4
g38
tp6442
(lp6443
V.5
p6444
aV2016-10-16 23:20:16
p6445
as(g25
g14
tp6446
(lp6447
V1
p6448
aV2016-10-16 23:11:28
p6449
as(g4
g24
tp6450
(lp6451
V.5
p6452
aV2016-10-16 23:20:16
p6453
assS'Von'
p6454
(dp6455
(g4
g14
tp6456
(lp6457
V0.4 + 0.35 - 0.55
p6458
aV2016-10-16 10:57:43
p6459
as(g25
g25
tp6460
(lp6461
V0.5*0.4
p6462
aV2016-10-16 09:21:00
p6463
as(g4
g4
tp6464
(lp6465
V0.35 + 0.35 - 0.5
p6466
aV2016-10-16 10:57:43
p6467
as(g4
g25
tp6468
(lp6469
V0.4 + 0.35 - 0.55
p6470
aV2016-10-16 10:57:43
p6471
as(g4
g19
tp6472
(lp6473
V(0.4 + 0.35 - 0.55 + 0.4 + 0.35 - 0.55 + 0.35 + 0.35 - 0.5 - 0.4 - 0.35 - 0.35 + 0.75) / (0.35 + 0.35 - 0.5)
p6474
aV2016-10-16 10:57:43
p6475
as(g4
g91
tp6476
(lp6477
V0.4 + 0.35 - 0.55 + 0.4 + 0.35 - 0.55 + 0.35 + 0.35 - 0.5 - 0.4 - 0.35 - 0.35 + 0.75
p6478
aV2016-10-16 10:57:43
p6479
as(g25
g4
tp6480
(lp6481
V(0.5*0.4)/0.4
p6482
aV2016-10-16 09:21:00
p6483
as(g4
g38
tp6484
(lp6485
V(0.4 + 0.35 - 0.55) / 0.4
p6486
aV2016-10-16 10:57:43
p6487
as(g25
g14
tp6488
(lp6489
V1
p6490
aV2016-10-16 09:21:00
p6491
as(g4
g24
tp6492
(lp6493
V(0.4 + 0.35 - 0.55) / 0.35
p6494
aV2016-10-16 10:57:43
p6495
assS't2xu'
p6496
(dp6497
(g3
g4
tp6498
(lp6499
V11
p6500
aV2016-10-18 08:51:26
p6501
as(g4
g4
tp6502
(lp6503
V.4+.35-.55
p6504
aV2016-10-18 07:47:58
p6505
as(g13
g14
tp6506
(lp6507
V(1 - (3/C(45,2)))^2
p6508
aV2016-10-18 08:24:54
p6509
as(g19
g4
tp6510
(lp6511
VC(52,5)-C(40,5)
p6512
aV2016-10-18 08:19:21
p6513
as(g24
g25
tp6514
(lp6515
V(.07*.5)
p6516
aV2016-10-18 08:07:07
p6517
as(g14
g24
tp6518
(lp6519
V(0.92/10000)/(0.92*0.0001+ 0.01*0.9999)
p6520
aV2016-10-18 07:57:07
p6521
as(g25
g4
tp6522
(lp6523
V(.5+.2-.6)/.2
p6524
aV2016-10-17 21:32:40
p6525
as(g3
g38
tp6526
(lp6527
V6*5/2
p6528
aV2016-10-18 08:51:26
p6529
as(g4
g14
tp6530
(lp6531
V.35+.35-.5
p6532
aV2016-10-18 07:47:58
p6533
as(g38
g24
tp6534
(lp6535
V(C(47,2)-C(43,2)+(4^2))/C(47,2)
p6536
aV2016-10-18 08:13:53
p6537
as(g4
g38
tp6538
(lp6539
V(.35+.4-.55)/.35
p6540
aV2016-10-18 07:47:58
p6541
as(g3
g25
tp6542
(lp6543
V12
p6544
aV2016-10-18 08:51:26
p6545
as(g19
g25
tp6546
(lp6547
VC(32,5)-C(20,5)
p6548
aV2016-10-18 08:19:21
p6549
as(g14
g14
tp6550
(lp6551
V.92*.0001
p6552
aV2016-10-18 07:57:07
p6553
as(g38
g14
tp6554
(lp6555
VC(47,2)
p6556
aV2016-10-18 08:13:53
p6557
as(g3
g24
tp6558
(lp6559
V9-7-1
p6560
aV2016-10-18 08:51:26
p6561
as(g4
g19
tp6562
(lp6563
V((0.7-0.35-0.4-0.35)+(.35+.4-.55)+(.4+.35-.55)+(.35+.35-.5))/(.4+.35-.55)
p6564
aV2016-10-18 07:47:58
p6565
as(g24
g4
tp6566
(lp6567
V(.07*.5) + (.04*.5)
p6568
aV2016-10-18 08:07:07
p6569
as(g13
g25
tp6570
(lp6571
V3
p6572
aV2016-10-18 08:24:54
p6573
as(g25
g25
tp6574
(lp6575
V.5+.2-.6
p6576
aV2016-10-17 21:32:40
p6577
as(g91
g25
tp6578
(lp6579
V32
p6580
aV2016-10-18 08:16:51
p6581
as(g14
g4
tp6582
(lp6583
V(0.92*0.0001)+ (0.01*0.9999)
p6584
aV2016-10-18 07:57:07
p6585
as(g38
g4
tp6586
(lp6587
VC(47,2)-C(43,2)
p6588
aV2016-10-18 08:13:53
p6589
as(g24
g14
tp6590
(lp6591
V(.07*.5)/((.07*.5) + (.04*.5))
p6592
aV2016-10-18 08:07:07
p6593
as(g91
g4
tp6594
(lp6595
V32/C(47,2)
p6596
aV2016-10-18 08:16:51
p6597
as(g3
g14
tp6598
(lp6599
V12*11
p6600
aV2016-10-18 08:51:26
p6601
as(g4
g25
tp6602
(lp6603
V.35+.4-.55
p6604
aV2016-10-18 07:47:58
p6605
as(g13
g4
tp6606
(lp6607
V1 - (3/C(45,2))
p6608
aV2016-10-18 08:24:54
p6609
as(g14
g25
tp6610
(lp6611
V1/10000
p6612
aV2016-10-18 07:57:07
p6613
as(g19
g14
tp6614
(lp6615
V(C(32,5)-C(20,5))/(C(52,5)-C(40,5))
p6616
aV2016-10-18 08:19:21
p6617
as(g3
g91
tp6618
(lp6619
V(6*5/2)/(11*12)
p6620
aV2016-10-18 08:51:26
p6621
as(g4
g91
tp6622
(lp6623
V(0.7-0.35-0.4-0.35)+(.35+.4-.55)+(.4+.35-.55)+(.35+.35-.5)
p6624
aV2016-10-18 07:47:58
p6625
as(g4
g24
tp6626
(lp6627
V(.35+.4-.55)/.4
p6628
aV2016-10-18 07:47:58
p6629
as(g25
g14
tp6630
(lp6631
V1
p6632
aV2016-10-17 21:32:40
p6633
as(g38
g25
tp6634
(lp6635
V4^2
p6636
aV2016-10-18 08:13:53
p6637
assS'minhsuanyao'
p6638
(dp6639
(g4
g14
tp6640
(lp6641
V0.15
p6642
aV2016-10-18 23:22:37
p6643
as(g25
g25
tp6644
(lp6645
V0.2
p6646
aV2016-10-18 06:24:35
p6647
as(g4
g4
tp6648
(lp6649
V0.15
p6650
aV2016-10-18 23:22:37
p6651
as(g4
g25
tp6652
(lp6653
V0.15
p6654
aV2016-10-18 23:22:37
p6655
as(g4
g19
tp6656
(lp6657
V0.15/0.15
p6658
aV2016-10-18 23:22:37
p6659
as(g4
g91
tp6660
(lp6661
V0.15
p6662
aV2016-10-18 23:22:37
p6663
as(g25
g4
tp6664
(lp6665
V0.4
p6666
aV2016-10-18 06:24:35
p6667
as(g4
g38
tp6668
(lp6669
V0.5
p6670
aV2016-10-18 23:22:37
p6671
as(g25
g14
tp6672
(lp6673
V0
p6674
aV2016-10-18 06:24:35
p6675
as(g4
g24
tp6676
(lp6677
V0.5
p6678
aV2016-10-18 23:22:37
p6679
assS'ankannan'
p6680
(dp6681
(g4
g14
tp6682
(lp6683
V.2
p6684
aV2016-10-17 06:25:49
p6685
as(g25
g25
tp6686
(lp6687
V.08
p6688
aV2016-10-16 22:57:53
p6689
as(g4
g4
tp6690
(lp6691
V.2
p6692
aV2016-10-17 06:25:49
p6693
as(g4
g25
tp6694
(lp6695
V.2
p6696
aV2016-10-17 06:25:49
p6697
as(g25
g14
tp6698
(lp6699
V0
p6700
aV2016-10-16 22:57:53
p6701
as(g14
g25
tp6702
(lp6703
V1/10000
p6704
aV2016-10-17 06:56:01
p6705
as(g14
g4
tp6706
(lp6707
V.95 * 1/10000 + .02 * 9999/10000
p6708
aV2016-10-17 06:56:01
p6709
as(g4
g19
tp6710
(lp6711
V1
p6712
aV2016-10-17 06:25:49
p6713
as(g14
g14
tp6714
(lp6715
V.94 +.95 * 1/10000 + .02 * 9999/10000
p6716
aV2016-10-17 06:56:01
p6717
as(g4
g91
tp6718
(lp6719
V.2
p6720
aV2016-10-17 06:25:49
p6721
as(g14
g24
tp6722
(lp6723
V.95* 1/10000/(.95 * 1/10000 + .02 * 9999/10000)
p6724
aV2016-10-17 06:56:01
p6725
as(g4
g38
tp6726
(lp6727
V.2/.35
p6728
aV2016-10-17 06:25:49
p6729
as(g25
g4
tp6730
(lp6731
V.08/.4
p6732
aV2016-10-16 22:57:53
p6733
as(g4
g24
tp6734
(lp6735
V.2/.35
p6736
aV2016-10-17 06:25:49
p6737
assS'Khang_Vinh'
p6738
(dp6739
(g4
g14
tp6740
(lp6741
V0.25+0.25-0.35
p6742
aV2016-10-18 02:06:22
p6743
as(g25
g25
tp6744
(lp6745
V0.08
p6746
aV2016-10-17 22:00:20
p6747
as(g4
g4
tp6748
(lp6749
V0.2+0.25-0.3
p6750
aV2016-10-18 02:06:22
p6751
as(g4
g25
tp6752
(lp6753
V0.25+0.2-0.35
p6754
aV2016-10-18 02:06:22
p6755
as(g4
g19
tp6756
(lp6757
V(0.45-0.25-0.2-0.25+(0.25+0.2-0.35)+(0.25+0.25-0.35)+(0.2+0.25-0.3))/(0.2+0.25-0.3)
p6758
aV2016-10-18 02:06:22
p6759
as(g4
g91
tp6760
(lp6761
V0.45-0.25-0.2-0.25+(0.25+0.2-0.35)+(0.25+0.25-0.35)+(0.2+0.25-0.3)
p6762
aV2016-10-18 02:06:22
p6763
as(g25
g4
tp6764
(lp6765
V0.2
p6766
aV2016-10-17 22:00:20
p6767
as(g4
g38
tp6768
(lp6769
V(0.25+0.2-0.35)/0.25
p6770
aV2016-10-18 02:06:22
p6771
as(g25
g14
tp6772
(lp6773
V1
p6774
aV2016-10-17 22:00:20
p6775
as(g4
g24
tp6776
(lp6777
V(0.25+0.2-0.35)/0.2
p6778
aV2016-10-18 02:06:22
p6779
assS'abtom'
p6780
(dp6781
(g4
g25
tp6782
(lp6783
V.075
p6784
aV2016-10-17 20:32:28
p6785
as(g25
g4
tp6786
(lp6787
V.5
p6788
aV2016-10-17 05:17:44
p6789
as(g25
g25
tp6790
(lp6791
V.10
p6792
aV2016-10-17 05:17:44
p6793
as(g25
g14
tp6794
(lp6795
V1
p6796
aV2016-10-17 05:17:44
p6797
assS'Guillermo'
p6798
(dp6799
(g3
g4
tp6800
(lp6801
V14-2
p6802
aV2016-10-16 21:25:36
p6803
as(g4
g4
tp6804
(lp6805
V.4+.3-.55
p6806
aV2016-10-16 17:29:09
p6807
as(g13
g14
tp6808
(lp6809
V(1-3/C(52-7,2))*(1-3/C(52-9,2))
p6810
aV2016-10-16 20:36:11
p6811
as(g19
g4
tp6812
(lp6813
VC(52,5)-C(40,5)
p6814
aV2016-10-16 20:30:21
p6815
as(g24
g25
tp6816
(lp6817
V(.07)*(.50)
p6818
aV2016-10-16 03:20:50
p6819
as(g14
g24
tp6820
(lp6821
V((93/100)*(1/10000))/((93/100)*(1/10000)+(1/100)*(1-(1/10000)))
p6822
aV2016-10-16 03:14:25
p6823
as(g25
g4
tp6824
(lp6825
V.3
p6826
aV2016-10-16 02:11:35
p6827
as(g3
g38
tp6828
(lp6829
V(14-5)*(14-5-1)/2
p6830
aV2016-10-16 21:25:36
p6831
as(g4
g14
tp6832
(lp6833
V.35+.3-.5
p6834
aV2016-10-16 17:29:09
p6835
as(g38
g24
tp6836
(lp6837
V194/(C(47,2))
p6838
aV2016-10-16 20:00:00
p6839
as(g4
g38
tp6840
(lp6841
V(.35+.4-.55)/(.35)
p6842
aV2016-10-16 17:29:09
p6843
as(g3
g25
tp6844
(lp6845
V14-1
p6846
aV2016-10-16 21:25:36
p6847
as(g19
g25
tp6848
(lp6849
VC(32,5)-C(20,5)
p6850
aV2016-10-16 20:30:21
p6851
as(g14
g14
tp6852
(lp6853
V(93/100)*(1/10000)
p6854
aV2016-10-16 03:14:25
p6855
as(g38
g14
tp6856
(lp6857
VC(47,2)
p6858
aV2016-10-16 20:00:00
p6859
as(g3
g24
tp6860
(lp6861
V9-5-1
p6862
aV2016-10-16 21:25:36
p6863
as(g4
g19
tp6864
(lp6865
V(.7-.35-.4-.3+(.35+.4-.55)+(.4+.3-.55)+(.35+.3-.5))/(.4+.3-.55)
p6866
aV2016-10-16 17:29:09
p6867
as(g24
g4
tp6868
(lp6869
V(.07)*(.50)+(.04)*(.50)
p6870
aV2016-10-16 03:20:50
p6871
as(g13
g25
tp6872
(lp6873
V3
p6874
aV2016-10-16 20:36:11
p6875
as(g25
g25
tp6876
(lp6877
V.06
p6878
aV2016-10-16 02:11:35
p6879
as(g91
g25
tp6880
(lp6881
V16+16
p6882
aV2016-10-16 20:13:30
p6883
as(g14
g4
tp6884
(lp6885
V(93/100)*(1/10000)+(1/100)*(1-(1/10000))
p6886
aV2016-10-16 03:14:25
p6887
as(g38
g4
tp6888
(lp6889
VC(47,2)-C(43,2)
p6890
aV2016-10-16 20:00:00
p6891
as(g24
g14
tp6892
(lp6893
V((.07)*(.50))/((.07)*(.50)+(.04)*(.50))
p6894
aV2016-10-16 03:20:50
p6895
as(g91
g4
tp6896
(lp6897
V(16+16)/C(47,2)
p6898
aV2016-10-16 20:13:30
p6899
as(g3
g14
tp6900
(lp6901
V(14-1)*(14-2)
p6902
aV2016-10-16 21:25:36
p6903
as(g4
g25
tp6904
(lp6905
V.35+.4-.55
p6906
aV2016-10-16 17:29:09
p6907
as(g13
g4
tp6908
(lp6909
V1-3/C(52-7,2)
p6910
aV2016-10-16 20:36:11
p6911
as(g14
g25
tp6912
(lp6913
V(1/10000)
p6914
aV2016-10-16 03:14:25
p6915
as(g19
g14
tp6916
(lp6917
V(185872)/(1940952)
p6918
aV2016-10-16 20:30:21
p6919
as(g3
g91
tp6920
(lp6921
V(14-5)*(14-5-1)/2/((14-1)*(14-2))
p6922
aV2016-10-16 21:25:36
p6923
as(g4
g91
tp6924
(lp6925
V.7-.35-.4-.3+(.35+.4-.55)+(.4+.3-.55)+(.35+.3-.5)
p6926
aV2016-10-16 17:29:09
p6927
as(g4
g24
tp6928
(lp6929
V(.35+.4-.55)/(.4)
p6930
aV2016-10-16 17:29:09
p6931
as(g25
g14
tp6932
(lp6933
V1
p6934
aV2016-10-16 02:11:35
p6935
as(g38
g25
tp6936
(lp6937
V4*4
p6938
aV2016-10-16 20:00:00
p6939
assS'Riyang'
p6940
(dp6941
(g4
g4
tp6942
(lp6943
V0.3-(0.4-0.25)
p6944
aV2016-10-17 05:51:21
p6945
as(g13
g14
tp6946
(lp6947
V(1-(3/C(45,2)))^2
p6948
aV2016-10-18 21:24:03
p6949
as(g19
g4
tp6950
(lp6951
VC(52,5)-C(40,5)
p6952
aV2016-10-18 21:18:52
p6953
as(g4
g19
tp6954
(lp6955
V(0.65+(0.35-(0.5-0.3))+(0.3-(0.4-0.25))+(0.35-(0.45-0.25))-0.35-0.3-0.25)/(0.3-(0.4-0.25))
p6956
aV2016-10-17 05:51:21
p6957
as(g25
g4
tp6958
(lp6959
V(0.4+0.4-0.48)/0.4
p6960
aV2016-10-17 05:44:12
p6961
as(g4
g14
tp6962
(lp6963
V0.35-(0.45-0.25)
p6964
aV2016-10-17 05:51:21
p6965
as(g38
g24
tp6966
(lp6967
V(16+C(47,2)-C(43,2))/(C(47,2))
p6968
aV2016-10-18 20:56:59
p6969
as(g19
g25
tp6970
(lp6971
VC(32,5)-C(20,5)
p6972
aV2016-10-18 21:18:52
p6973
as(g38
g14
tp6974
(lp6975
VC(47,2)
p6976
aV2016-10-18 20:56:59
p6977
as(g4
g24
tp6978
(lp6979
V(0.35-(0.5-0.3))/0.3
p6980
aV2016-10-17 05:51:21
p6981
as(g13
g25
tp6982
(lp6983
V3
p6984
aV2016-10-18 21:24:03
p6985
as(g25
g25
tp6986
(lp6987
V0.4+0.4-0.48
p6988
aV2016-10-17 05:44:12
p6989
as(g91
g25
tp6990
(lp6991
V32
p6992
aV2016-10-18 21:08:35
p6993
as(g38
g4
tp6994
(lp6995
VC(47,2)-C(43,2)
p6996
aV2016-10-18 20:56:59
p6997
as(g4
g38
tp6998
(lp6999
V(0.35-(0.5-0.3))/0.35
p7000
aV2016-10-17 05:51:21
p7001
as(g91
g4
tp7002
(lp7003
V(32)/(C(47,2))
p7004
aV2016-10-18 21:08:35
p7005
as(g4
g25
tp7006
(lp7007
V0.35-(0.5-0.3)
p7008
aV2016-10-17 05:51:21
p7009
as(g13
g4
tp7010
(lp7011
V1-(3/(C(45,2)))
p7012
aV2016-10-18 21:24:03
p7013
as(g19
g14
tp7014
(lp7015
V(C(32,5)-C(20,5))/(C(52,5)-C(40,5))
p7016
aV2016-10-18 21:18:52
p7017
as(g4
g91
tp7018
(lp7019
V0.65+(0.35-(0.5-0.3))+(0.3-(0.4-0.25))+(0.35-(0.45-0.25))-0.35-0.3-0.25
p7020
aV2016-10-17 05:51:21
p7021
as(g25
g14
tp7022
(lp7023
V0
p7024
aV2016-10-17 05:44:12
p7025
as(g38
g25
tp7026
(lp7027
V16
p7028
aV2016-10-18 20:56:59
p7029
assS'Zhongting'
p7030
(dp7031
(g3
g4
tp7032
(lp7033
V12
p7034
aV2016-10-16 07:30:34
p7035
as(g4
g4
tp7036
(lp7037
V0.1
p7038
aV2016-10-16 05:26:42
p7039
as(g13
g14
tp7040
(lp7041
V(C(47,2)*C(45,2)-6*C(45,2)+2)/(C(47,2)*C(45,2))
p7042
aV2016-10-16 08:29:45
p7043
as(g19
g4
tp7044
(lp7045
VC(52,5)-C(40,5)
p7046
aV2016-10-16 07:15:17
p7047
as(g24
g25
tp7048
(lp7049
V0.06*1/2
p7050
aV2016-10-16 07:32:25
p7051
as(g14
g24
tp7052
(lp7053
V93/(93+9999)
p7054
aV2016-10-16 05:36:54
p7055
as(g25
g4
tp7056
(lp7057
V0.2
p7058
aV2016-10-16 05:18:59
p7059
as(g3
g38
tp7060
(lp7061
V21
p7062
aV2016-10-16 07:30:34
p7063
as(g4
g14
tp7064
(lp7065
V0.1
p7066
aV2016-10-16 05:26:42
p7067
as(g38
g24
tp7068
(lp7069
V(4*47+C(4,2))/C(47,2)
p7070
aV2016-10-16 06:59:02
p7071
as(g4
g38
tp7072
(lp7073
V1/2
p7074
aV2016-10-16 05:26:42
p7075
as(g3
g25
tp7076
(lp7077
V13
p7078
aV2016-10-16 07:30:34
p7079
as(g19
g25
tp7080
(lp7081
VC(32,5)-C(20,5)
p7082
aV2016-10-16 07:15:17
p7083
as(g14
g14
tp7084
(lp7085
V93/1000000
p7086
aV2016-10-16 05:36:54
p7087
as(g38
g14
tp7088
(lp7089
VC(47,2)
p7090
aV2016-10-16 06:59:02
p7091
as(g3
g24
tp7092
(lp7093
V3
p7094
aV2016-10-16 07:30:34
p7095
as(g4
g19
tp7096
(lp7097
V1
p7098
aV2016-10-16 05:26:42
p7099
as(g24
g4
tp7100
(lp7101
V0.06*1/2+0.03*1/2
p7102
aV2016-10-16 07:32:25
p7103
as(g13
g25
tp7104
(lp7105
V3
p7106
aV2016-10-16 08:29:45
p7107
as(g25
g25
tp7108
(lp7109
V0.08
p7110
aV2016-10-16 05:18:59
p7111
as(g91
g25
tp7112
(lp7113
V4*4*2
p7114
aV2016-10-16 07:01:06
p7115
as(g14
g4
tp7116
(lp7117
V(93+9999)/1000000
p7118
aV2016-10-16 05:36:54
p7119
as(g38
g4
tp7120
(lp7121
V4*43+C(4,2)
p7122
aV2016-10-16 06:59:02
p7123
as(g24
g14
tp7124
(lp7125
V2/3
p7126
aV2016-10-16 07:32:25
p7127
as(g91
g4
tp7128
(lp7129
V4*4*2/C(47,2)
p7130
aV2016-10-16 07:01:06
p7131
as(g3
g14
tp7132
(lp7133
V13*12
p7134
aV2016-10-16 07:30:34
p7135
as(g4
g25
tp7136
(lp7137
V0.1
p7138
aV2016-10-16 05:26:42
p7139
as(g13
g4
tp7140
(lp7141
V(C(47,2)-3)/C(47,2)
p7142
aV2016-10-16 08:29:45
p7143
as(g14
g25
tp7144
(lp7145
V1/10000
p7146
aV2016-10-16 05:36:54
p7147
as(g19
g14
tp7148
(lp7149
V(C(32,5)-C(20,5))/(C(52,5)-C(40,5))
p7150
aV2016-10-16 07:15:17
p7151
as(g3
g91
tp7152
(lp7153
V21/(13*12)
p7154
aV2016-10-16 07:30:34
p7155
as(g4
g91
tp7156
(lp7157
V0.1
p7158
aV2016-10-16 05:26:42
p7159
as(g4
g24
tp7160
(lp7161
V10/25
p7162
aV2016-10-16 05:26:42
p7163
as(g25
g14
tp7164
(lp7165
V0
p7166
aV2016-10-16 05:18:59
p7167
as(g38
g25
tp7168
(lp7169
V4*4
p7170
aV2016-10-16 06:59:02
p7171
assS'zkvick'
p7172
(dp7173
(g4
g14
tp7174
(lp7175
V.1
p7176
aV2016-10-17 21:25:03
p7177
as(g25
g25
tp7178
(lp7179
V.15
p7180
aV2016-10-17 21:07:17
p7181
as(g4
g4
tp7182
(lp7183
V.1
p7184
aV2016-10-17 21:25:03
p7185
as(g4
g25
tp7186
(lp7187
V.1
p7188
aV2016-10-17 21:25:03
p7189
as(g4
g38
tp7190
(lp7191
V.5
p7192
aV2016-10-17 21:25:03
p7193
as(g25
g14
tp7194
(lp7195
V1
p7196
aV2016-10-17 21:07:17
p7197
as(g14
g25
tp7198
(lp7199
V.0001
p7200
aV2016-10-17 21:38:39
p7201
as(g14
g4
tp7202
(lp7203
V0.010092
p7204
aV2016-10-17 21:38:39
p7205
as(g24
g25
tp7206
(lp7207
V.035
p7208
aV2016-10-17 21:46:42
p7209
as(g14
g14
tp7210
(lp7211
V.000093
p7212
aV2016-10-17 21:38:39
p7213
as(g4
g91
tp7214
(lp7215
V.1
p7216
aV2016-10-17 21:25:03
p7217
as(g14
g24
tp7218
(lp7219
V0.00921521997
p7220
aV2016-10-17 21:38:39
p7221
as(g4
g24
tp7222
(lp7223
V.5
p7224
aV2016-10-17 21:25:03
p7225
as(g24
g14
tp7226
(lp7227
V.035/.055
p7228
aV2016-10-17 21:46:42
p7229
as(g25
g4
tp7230
(lp7231
V.5
p7232
aV2016-10-17 21:07:17
p7233
as(g4
g19
tp7234
(lp7235
V1
p7236
aV2016-10-17 21:25:03
p7237
as(g24
g4
tp7238
(lp7239
V.055
p7240
aV2016-10-17 21:46:42
p7241
assS'anMihaly'
p7242
(dp7243
(g25
g4
tp7244
(lp7245
V0.02/0.1
p7246
aV2016-10-18 20:23:10
p7247
as(g25
g25
tp7248
(lp7249
V0.02
p7250
aV2016-10-18 20:23:10
p7251
as(g25
g14
tp7252
(lp7253
V0
p7254
aV2016-10-18 20:23:10
p7255
assS'Zeyi'
p7256
(dp7257
(g4
g4
tp7258
(lp7259
V0.35+0.35-0.55
p7260
aV2016-10-17 18:56:06
p7261
as(g13
g14
tp7262
(lp7263
V1-(4/C(50,4))
p7264
aV2016-10-19 00:25:18
p7265
as(g19
g4
tp7266
(lp7267
VC(52,5)-C(40,5)
p7268
aV2016-10-18 20:11:25
p7269
as(g24
g25
tp7270
(lp7271
V(6/100)*(1/2)
p7272
aV2016-10-17 21:29:50
p7273
as(g14
g24
tp7274
(lp7275
V94/10093
p7276
aV2016-10-17 21:16:11
p7277
as(g25
g4
tp7278
(lp7279
V0.5
p7280
aV2016-10-17 18:38:32
p7281
as(g4
g14
tp7282
(lp7283
V0.25+0.35-0.45
p7284
aV2016-10-17 18:56:06
p7285
as(g38
g24
tp7286
(lp7287
V194/C(47,2)
p7288
aV2016-10-18 19:24:50
p7289
as(g24
g14
tp7290
(lp7291
V((6/100)*(1/2))/((6/100)*(1/2)+(3/100)*(1/2))
p7292
aV2016-10-17 21:29:50
p7293
as(g19
g25
tp7294
(lp7295
VC(32,5)-C(20,5)
p7296
aV2016-10-18 20:11:25
p7297
as(g14
g14
tp7298
(lp7299
V(94/100)*(1/10000)
p7300
aV2016-10-17 21:16:11
p7301
as(g38
g14
tp7302
(lp7303
VC(47,2)
p7304
aV2016-10-18 19:24:50
p7305
as(g4
g19
tp7306
(lp7307
V0.1/0.15
p7308
aV2016-10-17 18:56:06
p7309
as(g4
g24
tp7310
(lp7311
V0.15/0.35
p7312
aV2016-10-17 18:56:06
p7313
as(g13
g25
tp7314
(lp7315
V3
p7316
aV2016-10-19 00:25:18
p7317
as(g25
g25
tp7318
(lp7319
V0.05
p7320
aV2016-10-17 18:38:32
p7321
as(g91
g25
tp7322
(lp7323
V32
p7324
aV2016-10-18 19:40:28
p7325
as(g14
g4
tp7326
(lp7327
V(94/100)*(1/10000)+(1/100)*(9999/10000)
p7328
aV2016-10-17 21:16:11
p7329
as(g38
g4
tp7330
(lp7331
V178
p7332
aV2016-10-18 19:24:50
p7333
as(g4
g38
tp7334
(lp7335
V0.15/0.25
p7336
aV2016-10-17 18:56:06
p7337
as(g91
g4
tp7338
(lp7339
V32/C(47,2)
p7340
aV2016-10-18 19:40:28
p7341
as(g4
g25
tp7342
(lp7343
V0.25+0.35-0.45
p7344
aV2016-10-17 18:56:06
p7345
as(g13
g4
tp7346
(lp7347
V1-(3/C(50,2))
p7348
aV2016-10-19 00:25:18
p7349
as(g14
g25
tp7350
(lp7351
V1/10000
p7352
aV2016-10-17 21:16:11
p7353
as(g19
g14
tp7354
(lp7355
V(C(32,5)-C(20,5))/(C(52,5)-C(40,5))
p7356
aV2016-10-18 20:11:25
p7357
as(g4
g91
tp7358
(lp7359
V0.1
p7360
aV2016-10-17 18:56:06
p7361
as(g24
g4
tp7362
(lp7363
V(6/100)*(1/2)+(3/100)*(1/2)
p7364
aV2016-10-17 21:29:50
p7365
as(g25
g14
tp7366
(lp7367
V1
p7368
aV2016-10-17 18:38:32
p7369
as(g38
g25
tp7370
(lp7371
V16
p7372
aV2016-10-18 19:24:50
p7373
assS'cpence'
p7374
(dp7375
(g4
g4
tp7376
(lp7377
V0.4 + 0.3 - 0.55
p7378
aV2016-10-18 01:58:00
p7379
as(g19
g4
tp7380
(lp7381
VC(52, 5) - C(40, 5)
p7382
aV2016-10-18 04:38:17
p7383
as(g24
g25
tp7384
(lp7385
V0.06 * 1/2
p7386
aV2016-10-18 03:11:19
p7387
as(g14
g24
tp7388
(lp7389
V(0.92 * 1/10000)/(0.92/10000 + 0.01*9999/10000)
p7390
aV2016-10-18 03:02:57
p7391
as(g25
g4
tp7392
(lp7393
V(0.1 + 0.2 - 0.28)/0.2
p7394
aV2016-10-18 01:13:39
p7395
as(g4
g14
tp7396
(lp7397
V0.3 + 0.3 - 0.45
p7398
aV2016-10-18 01:58:00
p7399
as(g38
g24
tp7400
(lp7401
V(16 + C(47, 2) - C(43, 2))/C(47, 2)
p7402
aV2016-10-18 03:39:47
p7403
as(g24
g14
tp7404
(lp7405
V0.06/0.09
p7406
aV2016-10-18 03:11:19
p7407
as(g19
g25
tp7408
(lp7409
V12*C(31, 4)
p7410
aV2016-10-18 04:38:17
p7411
as(g14
g14
tp7412
(lp7413
V0.92 * 1/10000
p7414
aV2016-10-18 03:02:57
p7415
as(g38
g14
tp7416
(lp7417
VC(47, 2)
p7418
aV2016-10-18 03:39:47
p7419
as(g4
g19
tp7420
(lp7421
V-(0.3 + 0.4 + 0.3 - (0.3 + 0.4 - 0.5) - (0.4 + 0.3 - 0.55) - (0.3 + 0.3 - 0.45) - 0.6)/(0.4 + 0.3 - 0.55)
p7422
aV2016-10-18 01:58:00
p7423
as(g4
g24
tp7424
(lp7425
V(0.3 + 0.4 - 0.5)/0.4
p7426
aV2016-10-18 01:58:00
p7427
as(g25
g25
tp7428
(lp7429
V0.1 + 0.2 - 0.28
p7430
aV2016-10-18 01:13:39
p7431
as(g91
g25
tp7432
(lp7433
V2*4^2
p7434
aV2016-10-18 03:46:26
p7435
as(g14
g4
tp7436
(lp7437
V0.92/10000 + 0.01*9999/10000
p7438
aV2016-10-18 03:02:57
p7439
as(g38
g4
tp7440
(lp7441
VC(47, 2) - C(43, 2)
p7442
aV2016-10-18 03:39:47
p7443
as(g4
g38
tp7444
(lp7445
V(0.3 + 0.4 - 0.5)/0.3
p7446
aV2016-10-18 01:58:00
p7447
as(g91
g4
tp7448
(lp7449
V(2*4^2)/C(47, 2)
p7450
aV2016-10-18 03:46:26
p7451
as(g4
g25
tp7452
(lp7453
V0.3 + 0.4 - 0.5
p7454
aV2016-10-18 01:58:00
p7455
as(g14
g25
tp7456
(lp7457
V1/10000
p7458
aV2016-10-18 03:02:57
p7459
as(g19
g14
tp7460
(lp7461
V12*C(31, 4)/(C(52, 5) - C(40, 5))
p7462
aV2016-10-18 04:38:17
p7463
as(g4
g91
tp7464
(lp7465
V-(0.3 + 0.4 + 0.3 - (0.3 + 0.4 - 0.5) - (0.4 + 0.3 - 0.55) - (0.3 + 0.3 - 0.45) - 0.6)
p7466
aV2016-10-18 01:58:00
p7467
as(g24
g4
tp7468
(lp7469
V(1/2) * (0.06 + 0.03)
p7470
aV2016-10-18 03:11:19
p7471
as(g25
g14
tp7472
(lp7473
V1
p7474
aV2016-10-18 01:13:39
p7475
as(g38
g25
tp7476
(lp7477
V16
p7478
aV2016-10-18 03:39:47
p7479
assS'kirkkw'
p7480
(dp7481
(g4
g14
tp7482
(lp7483
V.3+.3-.45
p7484
aV2016-10-18 08:08:42
p7485
as(g25
g25
tp7486
(lp7487
V.5*.1
p7488
aV2016-10-17 09:03:25
p7489
as(g4
g4
tp7490
(lp7491
V.3+.3-.45
p7492
aV2016-10-18 08:08:42
p7493
as(g4
g25
tp7494
(lp7495
V.3+.3-.45
p7496
aV2016-10-18 08:08:42
p7497
as(g4
g38
tp7498
(lp7499
V(.3+.3-.45)/.3
p7500
aV2016-10-18 08:08:42
p7501
as(g25
g14
tp7502
(lp7503
V1
p7504
aV2016-10-17 09:03:25
p7505
as(g14
g25
tp7506
(lp7507
V10^(-4)
p7508
aV2016-10-18 09:14:51
p7509
as(g14
g4
tp7510
(lp7511
V(.95*10^(-4))+(.02*.9999)
p7512
aV2016-10-18 09:14:51
p7513
as(g24
g25
tp7514
(lp7515
V.07*.5
p7516
aV2016-10-18 09:33:26
p7517
as(g14
g14
tp7518
(lp7519
V.95*10^(-4)
p7520
aV2016-10-18 09:14:51
p7521
as(g4
g91
tp7522
(lp7523
V.65-.3-.3-.3+(.3+.3-.45)+(.3+.3-.45)+(.3+.3-.45)
p7524
aV2016-10-18 08:08:42
p7525
as(g14
g24
tp7526
(lp7527
V(.95*10^(-4))/((.95*10^(-4))+(.02*.9999))
p7528
aV2016-10-18 09:14:51
p7529
as(g4
g24
tp7530
(lp7531
V(.3+.3-.45)/.3
p7532
aV2016-10-18 08:08:42
p7533
as(g24
g14
tp7534
(lp7535
V(.07*.5)/(.07*.5+.03*.5)
p7536
aV2016-10-18 09:33:26
p7537
as(g25
g4
tp7538
(lp7539
V.05/.1
p7540
aV2016-10-17 09:03:25
p7541
as(g4
g19
tp7542
(lp7543
V(.65-.3-.3-.3+(.3+.3-.45)+(.3+.3-.45)+(.3+.3-.45))/(.3+.3-.45)
p7544
aV2016-10-18 08:08:42
p7545
as(g24
g4
tp7546
(lp7547
V.07*.5+.03*.5
p7548
aV2016-10-18 09:33:26
p7549
assS'pesca'
p7550
(dp7551
(g4
g14
tp7552
(lp7553
V.3+.3-.45
p7554
aV2016-10-17 23:18:37
p7555
as(g25
g25
tp7556
(lp7557
V.5+.2-.5
p7558
aV2016-10-17 22:20:47
p7559
as(g4
g4
tp7560
(lp7561
V.3+.3-.45
p7562
aV2016-10-17 23:18:37
p7563
as(g4
g25
tp7564
(lp7565
V.3+.3-.45
p7566
aV2016-10-17 23:18:37
p7567
as(g4
g19
tp7568
(lp7569
V(.55-.3-.3-.3+.3+.3-.45+.3+.3-.45+.3+.3-.45)/(.3+.3-.45)
p7570
aV2016-10-17 23:18:37
p7571
as(g4
g91
tp7572
(lp7573
V.55-.3-.3-.3+.3+.3-.45+.3+.3-.45+.3+.3-.45
p7574
aV2016-10-17 23:18:37
p7575
as(g25
g4
tp7576
(lp7577
V(.5+.2-.5)/.2
p7578
aV2016-10-17 22:20:47
p7579
as(g4
g38
tp7580
(lp7581
V(.3+.3-.45)/.3
p7582
aV2016-10-17 23:18:37
p7583
as(g25
g14
tp7584
(lp7585
V0
p7586
aV2016-10-17 22:20:47
p7587
as(g4
g24
tp7588
(lp7589
V(.3+.3-.45)/.3
p7590
aV2016-10-17 23:18:37
p7591
assS'JoshuaKomala'
p7592
(dp7593
(g4
g14
tp7594
(lp7595
V(0.3+0.25-0.4)
p7596
aV2016-10-18 00:46:27
p7597
as(g4
g91
tp7598
(lp7599
V(0.6-0.9+((0.3+0.25-0.4)+(0.35+0.25-0.45)+(0.3+0.35-0.45)))
p7600
aV2016-10-18 00:46:27
p7601
as(g38
g4
tp7602
(lp7603
V178
p7604
aV2016-10-18 23:17:13
p7605
as(g4
g25
tp7606
(lp7607
V(0.3+0.35-0.45)
p7608
aV2016-10-18 00:46:27
p7609
as(g38
g24
tp7610
(lp7611
V194/C(47,2)
p7612
aV2016-10-18 23:17:13
p7613
as(g4
g38
tp7614
(lp7615
V((0.3+0.35-0.45)/0.3)
p7616
aV2016-10-18 00:46:27
p7617
as(g25
g14
tp7618
(lp7619
V1
p7620
aV2016-10-18 00:27:05
p7621
as(g4
g4
tp7622
(lp7623
V(0.35+0.25-0.45)
p7624
aV2016-10-18 00:46:27
p7625
as(g14
g25
tp7626
(lp7627
V1/10000
p7628
aV2016-10-18 21:53:04
p7629
as(g25
g25
tp7630
(lp7631
V0.09
p7632
aV2016-10-18 00:27:05
p7633
as(g14
g4
tp7634
(lp7635
V(92/100)*(1/10000) + (2/100)*(9999/10000)
p7636
aV2016-10-18 21:53:04
p7637
as(g4
g24
tp7638
(lp7639
V((0.3+0.35-0.45)/0.35)
p7640
aV2016-10-18 00:46:27
p7641
as(g24
g25
tp7642
(lp7643
V(6/100)*(1/2)
p7644
aV2016-10-18 22:02:56
p7645
as(g14
g14
tp7646
(lp7647
V(92/100)*(1/10000)
p7648
aV2016-10-18 21:53:04
p7649
as(g38
g14
tp7650
(lp7651
VC(47,2)
p7652
aV2016-10-18 23:17:13
p7653
as(g14
g24
tp7654
(lp7655
V((92/100)*(1/10000))/((92/100)*(1/10000) + (2/100)*(9999/10000))
p7656
aV2016-10-18 21:53:04
p7657
as(g38
g25
tp7658
(lp7659
V16
p7660
aV2016-10-18 23:17:13
p7661
as(g24
g14
tp7662
(lp7663
V((6/100)*(1/2)) / ((6/100)*(1/2) + (3/100)*(1/2))
p7664
aV2016-10-18 22:02:56
p7665
as(g25
g4
tp7666
(lp7667
V0.3
p7668
aV2016-10-18 00:27:05
p7669
as(g4
g19
tp7670
(lp7671
V(0.6-0.9+((0.3+0.25-0.4)+(0.35+0.25-0.45)+(0.3+0.35-0.45)))/(0.3+0.25-0.4)
p7672
aV2016-10-18 00:46:27
p7673
as(g24
g4
tp7674
(lp7675
V(6/100)*(1/2) + (3/100)*(1/2)
p7676
aV2016-10-18 22:02:56
p7677
assS'woguan'
p7678
(dp7679
(g4
g14
tp7680
(lp7681
V0.15
p7682
aV2016-10-17 11:33:53
p7683
as(g25
g25
tp7684
(lp7685
V0.05
p7686
aV2016-10-17 11:05:29
p7687
as(g4
g4
tp7688
(lp7689
V0.15
p7690
aV2016-10-17 11:33:53
p7691
as(g4
g25
tp7692
(lp7693
V0.1
p7694
aV2016-10-17 11:33:53
p7695
as(g4
g38
tp7696
(lp7697
V1/3
p7698
aV2016-10-17 11:33:53
p7699
as(g25
g14
tp7700
(lp7701
V1
p7702
aV2016-10-17 11:05:29
p7703
as(g14
g25
tp7704
(lp7705
V10^(-4)
p7706
aV2016-10-17 15:03:08
p7707
as(g14
g4
tp7708
(lp7709
V((92/100)*10^(-4)) + (1/100)*(1-10^(-4))
p7710
aV2016-10-17 15:03:08
p7711
as(g24
g25
tp7712
(lp7713
V0.06*0.5
p7714
aV2016-10-17 16:02:49
p7715
as(g14
g14
tp7716
(lp7717
V0.92*10^(-4)
p7718
aV2016-10-17 15:03:08
p7719
as(g4
g91
tp7720
(lp7721
V0.15
p7722
aV2016-10-17 11:33:53
p7723
as(g14
g24
tp7724
(lp7725
V0.92*10^(-4)/(((92/100)*10^(-4)) + (1/100)*(1-10^(-4)))
p7726
aV2016-10-17 15:03:08
p7727
as(g4
g24
tp7728
(lp7729
V0.5
p7730
aV2016-10-17 11:33:53
p7731
as(g24
g14
tp7732
(lp7733
V(0.06*0.5)/(0.06*0.5 + 0.04*0.5)
p7734
aV2016-10-17 16:02:49
p7735
as(g25
g4
tp7736
(lp7737
V0.5
p7738
aV2016-10-17 11:05:29
p7739
as(g4
g19
tp7740
(lp7741
V1
p7742
aV2016-10-17 11:33:53
p7743
as(g24
g4
tp7744
(lp7745
V0.06*0.5 + 0.04*0.5
p7746
aV2016-10-17 16:02:49
p7747
assS'aspindle'
p7748
(dp7749
(g4
g14
tp7750
(lp7751
V-.55+.4+.35
p7752
aV2016-10-17 02:25:27
p7753
as(g25
g25
tp7754
(lp7755
V.08
p7756
aV2016-10-17 01:40:49
p7757
as(g4
g4
tp7758
(lp7759
V-.45+.3+.35
p7760
aV2016-10-17 02:25:27
p7761
as(g4
g25
tp7762
(lp7763
V-.5+.4+.3
p7764
aV2016-10-17 02:25:27
p7765
as(g4
g38
tp7766
(lp7767
V.2/.4
p7768
aV2016-10-17 02:25:27
p7769
as(g25
g14
tp7770
(lp7771
V1
p7772
aV2016-10-17 01:40:49
p7773
as(g14
g25
tp7774
(lp7775
V.0001
p7776
aV2016-10-17 21:28:13
p7777
as(g14
g4
tp7778
(lp7779
V.020093
p7780
aV2016-10-17 21:28:13
p7781
as(g24
g25
tp7782
(lp7783
V.03
p7784
aV2016-10-17 21:37:13
p7785
as(g14
g14
tp7786
(lp7787
V.000095
p7788
aV2016-10-17 21:28:13
p7789
as(g4
g91
tp7790
(lp7791
V.65-1.05+.6
p7792
aV2016-10-17 02:25:27
p7793
as(g14
g24
tp7794
(lp7795
V.0047280147
p7796
aV2016-10-17 21:28:13
p7797
as(g4
g24
tp7798
(lp7799
V.2/.3
p7800
aV2016-10-17 02:25:27
p7801
as(g24
g14
tp7802
(lp7803
V.666666666
p7804
aV2016-10-17 21:37:13
p7805
as(g25
g4
tp7806
(lp7807
V.2
p7808
aV2016-10-17 01:40:49
p7809
as(g4
g19
tp7810
(lp7811
V.2/.2
p7812
aV2016-10-17 02:25:27
p7813
as(g24
g4
tp7814
(lp7815
V.045
p7816
aV2016-10-17 21:37:13
p7817
assS'shuang'
p7818
(dp7819
(g4
g14
tp7820
(lp7821
V0.2
p7822
aV2016-10-16 06:40:52
p7823
as(g25
g25
tp7824
(lp7825
V0.02
p7826
aV2016-10-16 06:27:40
p7827
as(g4
g4
tp7828
(lp7829
V0.2
p7830
aV2016-10-16 06:40:52
p7831
as(g4
g25
tp7832
(lp7833
V0.2
p7834
aV2016-10-16 06:40:52
p7835
as(g25
g14
tp7836
(lp7837
V0
p7838
aV2016-10-16 06:27:40
p7839
as(g14
g25
tp7840
(lp7841
V1/10000
p7842
aV2016-10-17 19:51:45
p7843
as(g14
g4
tp7844
(lp7845
V20092/1000000
p7846
aV2016-10-17 19:51:45
p7847
as(g4
g19
tp7848
(lp7849
V1
p7850
aV2016-10-16 06:40:52
p7851
as(g14
g14
tp7852
(lp7853
V94/1000000
p7854
aV2016-10-17 19:51:45
p7855
as(g4
g91
tp7856
(lp7857
V0.2
p7858
aV2016-10-16 06:40:52
p7859
as(g14
g24
tp7860
(lp7861
V94/20092
p7862
aV2016-10-17 19:51:45
p7863
as(g4
g38
tp7864
(lp7865
V1/2
p7866
aV2016-10-16 06:40:52
p7867
as(g25
g4
tp7868
(lp7869
V0.2
p7870
aV2016-10-16 06:27:40
p7871
as(g4
g24
tp7872
(lp7873
V2/3
p7874
aV2016-10-16 06:40:52
p7875
assS'heitorschueroff'
p7876
(dp7877
(g4
g14
tp7878
(lp7879
V0.25 + 0.3 - 0.45
p7880
aV2016-10-18 23:18:37
p7881
as(g25
g25
tp7882
(lp7883
V0.5 + 0.1 - 0.5
p7884
aV2016-10-18 23:05:25
p7885
as(g4
g4
tp7886
(lp7887
V0.35 + 0.3 - 0.55
p7888
aV2016-10-18 23:18:37
p7889
as(g4
g25
tp7890
(lp7891
V0.25 + 0.35 - 0.45
p7892
aV2016-10-18 23:18:37
p7893
as(g4
g38
tp7894
(lp7895
V(0.25 + 0.35 - 0.45)/(0.25)
p7896
aV2016-10-18 23:18:37
p7897
as(g25
g14
tp7898
(lp7899
V0
p7900
aV2016-10-18 23:05:25
p7901
as(g14
g25
tp7902
(lp7903
V1/10000
p7904
aV2016-10-18 23:34:24
p7905
as(g14
g4
tp7906
(lp7907
V(92/100)*1/10000 + (1/100) * (1 - (1/10000))
p7908
aV2016-10-18 23:34:24
p7909
as(g24
g25
tp7910
(lp7911
V0.07*0.5
p7912
aV2016-10-18 23:36:43
p7913
as(g14
g14
tp7914
(lp7915
V(92/100)*(1/10000)
p7916
aV2016-10-18 23:34:24
p7917
as(g4
g91
tp7918
(lp7919
V0.65 - (0.25 + 0.35 + 0.3) + (0.25 + 0.35 - 0.45) + (0.35 + 0.3 - 0.55) + (0.25 + 0.3 - 0.45)
p7920
aV2016-10-18 23:18:37
p7921
as(g14
g24
tp7922
(lp7923
V((92/100)*(1/10000))/((92/100)*1/10000 + (1/100) * (1 - (1/10000)))
p7924
aV2016-10-18 23:34:24
p7925
as(g4
g24
tp7926
(lp7927
V(0.25 + 0.35 - 0.45)/(0.35)
p7928
aV2016-10-18 23:18:37
p7929
as(g24
g14
tp7930
(lp7931
V(0.07*0.5) / (0.07*0.5 + 0.04*0.5)
p7932
aV2016-10-18 23:36:43
p7933
as(g25
g4
tp7934
(lp7935
V(0.5 + 0.1 - 0.5)/(0.1)
p7936
aV2016-10-18 23:05:25
p7937
as(g4
g19
tp7938
(lp7939
V(0.65 - (0.25 + 0.35 + 0.3) + (0.25 + 0.35 - 0.45) + (0.35 + 0.3 - 0.55) + (0.25 + 0.3 - 0.45)) / (0.35 + 0.3 - 0.55)
p7940
aV2016-10-18 23:18:37
p7941
as(g24
g4
tp7942
(lp7943
V0.07*0.5 + 0.04*0.5
p7944
aV2016-10-18 23:36:43
p7945
assS'JasonHuang'
p7946
(dp7947
(g4
g4
tp7948
(lp7949
V0.15
p7950
aV2016-10-18 23:22:41
p7951
as(g19
g4
tp7952
(lp7953
VC(52, 5) - C(40, 5)
p7954
aV2016-10-18 23:53:51
p7955
as(g24
g25
tp7956
(lp7957
V0.07*0.5
p7958
aV2016-10-18 23:31:54
p7959
as(g14
g24
tp7960
(lp7961
V(92/100*1/10000)/(92/100*1/10000 + 1/100*9999/10000)
p7962
aV2016-10-18 23:27:16
p7963
as(g25
g4
tp7964
(lp7965
V0.2
p7966
aV2016-10-18 23:08:01
p7967
as(g4
g14
tp7968
(lp7969
V0.15
p7970
aV2016-10-18 23:22:41
p7971
as(g38
g24
tp7972
(lp7973
V(C(4, 1) * C(4, 1) + C(47, 2) - C(43, 2))/C(47, 2)
p7974
aV2016-10-18 23:40:31
p7975
as(g24
g14
tp7976
(lp7977
V0.07*0.5/(0.07*0.5+0.04*0.5)
p7978
aV2016-10-18 23:31:54
p7979
as(g19
g25
tp7980
(lp7981
VC(32, 5) - C(20, 5)
p7982
aV2016-10-18 23:53:51
p7983
as(g14
g14
tp7984
(lp7985
V92/100*1/10000
p7986
aV2016-10-18 23:27:16
p7987
as(g38
g14
tp7988
(lp7989
VC(47, 2)
p7990
aV2016-10-18 23:40:31
p7991
as(g4
g19
tp7992
(lp7993
V1
p7994
aV2016-10-18 23:22:41
p7995
as(g4
g24
tp7996
(lp7997
V0.15/0.3
p7998
aV2016-10-18 23:22:41
p7999
as(g25
g25
tp8000
(lp8001
V0.06
p8002
aV2016-10-18 23:08:01
p8003
as(g91
g25
tp8004
(lp8005
V(C(4, 1) * C(4, 1)) * 2
p8006
aV2016-10-18 23:48:00
p8007
as(g14
g4
tp8008
(lp8009
V92/100*1/10000 + 1/100*9999/10000
p8010
aV2016-10-18 23:27:16
p8011
as(g38
g4
tp8012
(lp8013
VC(47, 2) - C(43, 2)
p8014
aV2016-10-18 23:40:31
p8015
as(g4
g38
tp8016
(lp8017
V0.15/0.3
p8018
aV2016-10-18 23:22:41
p8019
as(g91
g4
tp8020
(lp8021
V(C(4, 1) * C(4, 1)) * 2 / (C(47, 2))
p8022
aV2016-10-18 23:48:00
p8023
as(g4
g25
tp8024
(lp8025
V0.15
p8026
aV2016-10-18 23:22:41
p8027
as(g14
g25
tp8028
(lp8029
V1/10000
p8030
aV2016-10-18 23:27:16
p8031
as(g19
g14
tp8032
(lp8033
V(C(32, 5) - C(20, 5))/(C(52, 5) - C(40, 5))
p8034
aV2016-10-18 23:53:51
p8035
as(g4
g91
tp8036
(lp8037
V0.15
p8038
aV2016-10-18 23:22:41
p8039
as(g24
g4
tp8040
(lp8041
V0.07*0.5+0.04*0.5
p8042
aV2016-10-18 23:31:54
p8043
as(g25
g14
tp8044
(lp8045
V0
p8046
aV2016-10-18 23:08:01
p8047
as(g38
g25
tp8048
(lp8049
VC(4, 1) * C(4, 1)
p8050
aV2016-10-18 23:40:31
p8051
assS'evahuynh'
p8052
(dp8053
(g4
g4
tp8054
(lp8055
V(0.35+0.3)-0.45
p8056
aV2016-10-18 00:33:51
p8057
as(g19
g4
tp8058
(lp8059
VC(52,5)-C(40,5)
p8060
aV2016-10-18 16:32:31
p8061
as(g24
g25
tp8062
(lp8063
V0.06*0.5
p8064
aV2016-10-18 00:54:22
p8065
as(g14
g24
tp8066
(lp8067
V((92/100)*(1/10000))/ (((92/100)*(1/10000))+((1/100)*(1-(1/10000))))
p8068
aV2016-10-18 00:48:33
p8069
as(g25
g4
tp8070
(lp8071
V(0.5-0.38)/0.2
p8072
aV2016-10-18 00:26:21
p8073
as(g4
g14
tp8074
(lp8075
V0.7-0.5
p8076
aV2016-10-18 00:33:51
p8077
as(g24
g14
tp8078
(lp8079
V(0.06*0.5)/((0.06*0.5)+(0.03*0.5))
p8080
aV2016-10-18 00:54:22
p8081
as(g19
g25
tp8082
(lp8083
VC(32,5)-C(20,5)
p8084
aV2016-10-18 16:32:31
p8085
as(g14
g14
tp8086
(lp8087
V(92/100)*(1/10000)
p8088
aV2016-10-18 00:48:33
p8089
as(g4
g24
tp8090
(lp8091
V((0.4+0.35)-0.55)/0.35
p8092
aV2016-10-18 00:33:51
p8093
as(g25
g25
tp8094
(lp8095
V(0.5-0.38)
p8096
aV2016-10-18 00:26:21
p8097
as(g91
g25
tp8098
(lp8099
V32
p8100
aV2016-10-18 03:03:26
p8101
as(g14
g4
tp8102
(lp8103
V((92/100)*(1/10000))+((1/100)*(1-(1/10000)))
p8104
aV2016-10-18 00:48:33
p8105
as(g4
g38
tp8106
(lp8107
V((0.4+0.35)-0.55)/0.4
p8108
aV2016-10-18 00:33:51
p8109
as(g91
g4
tp8110
(lp8111
V32/C(52-5,2)
p8112
aV2016-10-18 03:03:26
p8113
as(g4
g25
tp8114
(lp8115
V(0.4+0.35)-0.55
p8116
aV2016-10-18 00:33:51
p8117
as(g14
g25
tp8118
(lp8119
V1/10000
p8120
aV2016-10-18 00:48:33
p8121
as(g19
g14
tp8122
(lp8123
V(C(32,5)-C(20,5))/(C(52,5)-C(40,5))
p8124
aV2016-10-18 16:32:31
p8125
as(g4
g91
tp8126
(lp8127
V0.65-0.4-0.35-0.3+((0.4+0.35)-0.55)+((0.35+0.3)-0.45)+(0.7-0.5)
p8128
aV2016-10-18 00:33:51
p8129
as(g24
g4
tp8130
(lp8131
V(0.06*0.5)+(0.03*0.5)
p8132
aV2016-10-18 00:54:22
p8133
as(g25
g14
tp8134
(lp8135
V0
p8136
aV2016-10-18 00:26:21
p8137
as(g4
g19
tp8138
(lp8139
V(0.65-0.4-0.35-0.3+((0.4+0.35)-0.55)+((0.35+0.3)-0.45)+(0.7-0.5))/((0.35+0.3)-0.45)
p8140
aV2016-10-18 00:33:51
p8141
assS'ottojursch'
p8142
(dp8143
(g4
g14
tp8144
(lp8145
V.35 + .35 - .5
p8146
aV2016-10-18 18:59:50
p8147
as(g25
g25
tp8148
(lp8149
V.08
p8150
aV2016-10-18 18:30:46
p8151
as(g4
g4
tp8152
(lp8153
V.3 + .35 - .45
p8154
aV2016-10-18 18:59:50
p8155
as(g4
g25
tp8156
(lp8157
V.35 + .3 - .45
p8158
aV2016-10-18 18:59:50
p8159
as(g4
g19
tp8160
(lp8161
V(.65 - .35 - .3 -.35 + (.35 + .3 - .45) + (.3 + .35 - .45) + (.35 + .35 - .5)) / (.3 + .35 - .45)
p8162
aV2016-10-18 18:59:50
p8163
as(g4
g91
tp8164
(lp8165
V.65 - .35 - .3 -.35 + (.35 + .3 - .45) + (.3 + .35 - .45) + (.35 + .35 - .5)
p8166
aV2016-10-18 18:59:50
p8167
as(g25
g4
tp8168
(lp8169
V.2
p8170
aV2016-10-18 18:30:46
p8171
as(g4
g38
tp8172
(lp8173
V(.35 + .3 - .45) / .35
p8174
aV2016-10-18 18:59:50
p8175
as(g25
g14
tp8176
(lp8177
V0
p8178
aV2016-10-18 18:30:46
p8179
as(g4
g24
tp8180
(lp8181
V(.35 + .3 - .45) / .3
p8182
aV2016-10-18 18:59:50
p8183
assS'Benaisha'
p8184
(dp8185
(g25
g25
tp8186
(lp8187
V.04
p8188
aV2016-10-18 02:16:07
p8189
as(g13
g4
tp8190
(lp8191
V1-P(opphasstraightflush)
p8192
aV2016-10-18 02:27:11
p8193
as(g14
g4
tp8194
(lp8195
V(92/100)(1/10000)+(1/100)(9999/10000)
p8196
aV2016-10-18 02:44:11
p8197
as(g25
g4
tp8198
(lp8199
V.4
p8200
aV2016-10-18 02:16:07
p8201
as(g25
g14
tp8202
(lp8203
V0
p8204
aV2016-10-18 02:16:07
p8205
as(g4
g24
tp8206
(lp8207
V.1/.25
p8208
aV2016-10-18 17:51:10
p8209
assS'bhaveshnibber'
p8210
(dp8211
(g4
g14
tp8212
(lp8213
V0.2+0.25-0.35
p8214
aV2016-10-18 00:26:48
p8215
as(g25
g25
tp8216
(lp8217
V0.08
p8218
aV2016-10-17 23:58:42
p8219
as(g4
g4
tp8220
(lp8221
V0.2+0.25-0.35
p8222
aV2016-10-18 00:26:48
p8223
as(g4
g25
tp8224
(lp8225
V0.2+0.2-0.3
p8226
aV2016-10-18 00:26:48
p8227
as(g4
g38
tp8228
(lp8229
V(0.2+0.2-0.3)/0.2
p8230
aV2016-10-18 00:26:48
p8231
as(g25
g14
tp8232
(lp8233
V0
p8234
aV2016-10-17 23:58:42
p8235
as(g14
g25
tp8236
(lp8237
V1/10000
p8238
aV2016-10-18 03:29:08
p8239
as(g14
g4
tp8240
(lp8241
V((95/100)*(1/10000))+((1/100)*(1-1/10000))
p8242
aV2016-10-18 03:29:08
p8243
as(g24
g25
tp8244
(lp8245
V(6/100)*(1/2)
p8246
aV2016-10-18 03:36:04
p8247
as(g14
g14
tp8248
(lp8249
V95/1000000
p8250
aV2016-10-18 03:29:08
p8251
as(g4
g91
tp8252
(lp8253
V0.5-0.2-0.2-0.25+(0.2+0.2-0.3)+(0.2+0.25-0.35)+(0.2+0.25-0.35)
p8254
aV2016-10-18 00:26:48
p8255
as(g14
g24
tp8256
(lp8257
V(95/1000000)/(((95/100)*(1/10000))+((1/100)*(1-1/10000)))
p8258
aV2016-10-18 03:29:08
p8259
as(g4
g24
tp8260
(lp8261
V(0.2+0.2-0.3)/0.2
p8262
aV2016-10-18 00:26:48
p8263
as(g24
g14
tp8264
(lp8265
V((6/100)*(1/2))/(((6/100)*(1/2))+((3/100)*(1/2)))
p8266
aV2016-10-18 03:36:04
p8267
as(g25
g4
tp8268
(lp8269
V0.2
p8270
aV2016-10-17 23:58:42
p8271
as(g4
g19
tp8272
(lp8273
V(0.5-0.2-0.2-0.25+(0.2+0.2-0.3)+(0.2+0.25-0.35)+(0.2+0.25-0.35))/(0.2+0.25-0.35)
p8274
aV2016-10-18 00:26:48
p8275
as(g24
g4
tp8276
(lp8277
V((6/100)*(1/2))+((3/100)*(1/2))
p8278
aV2016-10-18 03:36:04
p8279
assS'CharlesCruz'
p8280
(dp8281
(g25
g4
tp8282
(lp8283
V0.2
p8284
aV2016-10-18 22:29:04
p8285
as(g25
g25
tp8286
(lp8287
V0.08
p8288
aV2016-10-18 22:29:04
p8289
as(g25
g14
tp8290
(lp8291
V0
p8292
aV2016-10-18 22:29:04
p8293
assS'Jisu'
p8294
(dp8295
(g3
g4
tp8296
(lp8297
V15-2
p8298
aV2016-10-16 06:41:15
p8299
as(g4
g4
tp8300
(lp8301
V(0.4+0.4)-0.6
p8302
aV2016-10-16 05:24:13
p8303
as(g13
g14
tp8304
(lp8305
V(C(47,2)-6)/(C(47,2))
p8306
aV2016-10-16 06:38:51
p8307
as(g19
g4
tp8308
(lp8309
VC(52,5) - C(40,5)
p8310
aV2016-10-16 06:38:31
p8311
as(g24
g25
tp8312
(lp8313
V0.06*0.5
p8314
aV2016-10-16 06:36:10
p8315
as(g14
g24
tp8316
(lp8317
V[(93/100)*(1/10000)]/[(93/100)*(1/10000)+(1/100)*(9999/10000)]
p8318
aV2016-10-16 06:27:01
p8319
as(g25
g4
tp8320
(lp8321
V((0.3+0.3)-0.51)/0.3
p8322
aV2016-10-16 05:04:18
p8323
as(g3
g38
tp8324
(lp8325
V1+2+3+4+5+6
p8326
aV2016-10-16 06:41:15
p8327
as(g4
g14
tp8328
(lp8329
V(0.35+0.4)-0.55
p8330
aV2016-10-16 05:24:13
p8331
as(g38
g24
tp8332
(lp8333
V((C(4,1) * C(4,1)) + (C(4,1) * C(46,1) - 6))/(C(47,2))
p8334
aV2016-10-16 06:37:05
p8335
as(g4
g38
tp8336
(lp8337
V((0.35+0.4)-0.55)/0.35
p8338
aV2016-10-16 05:24:13
p8339
as(g3
g25
tp8340
(lp8341
V15-1
p8342
aV2016-10-16 06:41:15
p8343
as(g19
g25
tp8344
(lp8345
V(C(20,4) * C(12,1)) + (C(20,3) * C(12,2)) + (C(20,2) * C(12,3)) + (C(20,1) * C(12,4)) + (C(12,5))
p8346
aV2016-10-16 06:38:31
p8347
as(g14
g14
tp8348
(lp8349
V[(93/100)*(1/10000)]/[(93/100)*(1/10000)+(1/100)*(9999/10000)]*[(93/100)*(1/10000)+(1/100)*(9999/10000)]
p8350
aV2016-10-16 06:27:01
p8351
as(g38
g14
tp8352
(lp8353
VC(47,2)
p8354
aV2016-10-16 06:37:05
p8355
as(g3
g24
tp8356
(lp8357
V2
p8358
aV2016-10-16 06:41:15
p8359
as(g4
g19
tp8360
(lp8361
V[0.75-0.35-0.4-0.4+((0.35+0.4)-0.55)+((0.4+0.4)-0.6)+((0.35+0.4)-0.55)]/((0.4+0.4)-0.6)
p8362
aV2016-10-16 05:24:13
p8363
as(g24
g4
tp8364
(lp8365
V(0.06 * 0.5) + (0.04*0.5)
p8366
aV2016-10-16 06:36:10
p8367
as(g13
g25
tp8368
(lp8369
V3
p8370
aV2016-10-16 06:38:51
p8371
as(g25
g25
tp8372
(lp8373
V(0.3+0.3)-0.51
p8374
aV2016-10-16 05:04:18
p8375
as(g91
g25
tp8376
(lp8377
V(C(4,1) * C(4,1)) + (C(4,1) * C(4,1))
p8378
aV2016-10-16 06:37:50
p8379
as(g14
g4
tp8380
(lp8381
V(93/100)*(1/10000)+(1/100)*(9999/10000)
p8382
aV2016-10-16 06:27:01
p8383
as(g38
g4
tp8384
(lp8385
VC(4,1) * C(46,1) - 6
p8386
aV2016-10-16 06:37:05
p8387
as(g24
g14
tp8388
(lp8389
V(0.06 * 0.5)/((0.06 * 0.5) + (0.04*0.5))
p8390
aV2016-10-16 06:36:10
p8391
as(g91
g4
tp8392
(lp8393
V((C(4,1) * C(4,1)) + (C(4,1) * C(4,1)))/(C(47,2))
p8394
aV2016-10-16 06:37:50
p8395
as(g3
g14
tp8396
(lp8397
V14*13
p8398
aV2016-10-16 06:41:15
p8399
as(g4
g25
tp8400
(lp8401
V(0.35+0.4)-0.55
p8402
aV2016-10-16 05:24:13
p8403
as(g13
g4
tp8404
(lp8405
V(C(47,2)-3)/(C(47,2))
p8406
aV2016-10-16 06:38:51
p8407
as(g14
g25
tp8408
(lp8409
V1/10000
p8410
aV2016-10-16 06:27:01
p8411
as(g19
g14
tp8412
(lp8413
V((C(20,4) * C(12,1)) + (C(20,3) * C(12,2)) + (C(20,2) * C(12,3)) + (C(20,1) * C(12,4)) + (C(12,5)))/(C(52,5) - C(40,5))
p8414
aV2016-10-16 06:38:31
p8415
as(g3
g91
tp8416
(lp8417
V(1+2+3+4+5+6)/(14*13)
p8418
aV2016-10-16 06:41:15
p8419
as(g4
g91
tp8420
(lp8421
V0.75-0.35-0.4-0.4+((0.35+0.4)-0.55)+((0.4+0.4)-0.6)+((0.35+0.4)-0.55)
p8422
aV2016-10-16 05:24:13
p8423
as(g4
g24
tp8424
(lp8425
V((0.35+0.4)-0.55)/0.4
p8426
aV2016-10-16 05:24:13
p8427
as(g25
g14
tp8428
(lp8429
V1
p8430
aV2016-10-16 05:04:18
p8431
as(g38
g25
tp8432
(lp8433
VC(4,1) * C(4,1)
p8434
aV2016-10-16 06:37:05
p8435
assS'twsalim'
p8436
(dp8437
(g3
g4
tp8438
(lp8439
V12
p8440
aV2016-10-18 00:06:38
p8441
as(g4
g4
tp8442
(lp8443
V0.2
p8444
aV2016-10-17 19:23:54
p8445
as(g13
g14
tp8446
(lp8447
V1 - 3/C(45,2)- 3/C(45,2)
p8448
aV2016-10-17 23:37:25
p8449
as(g19
g4
tp8450
(lp8451
VC(52,5) - C(52 - 3*4,5)
p8452
aV2016-10-17 23:20:27
p8453
as(g24
g25
tp8454
(lp8455
V7/100 * 0.5
p8456
aV2016-10-17 21:24:00
p8457
as(g14
g24
tp8458
(lp8459
V((94/100)*(1/10000)) / ( (94/100)*1/10000 + (2/100)*(1-1/10000) )
p8460
aV2016-10-17 21:11:08
p8461
as(g25
g4
tp8462
(lp8463
V0.4/0.4
p8464
aV2016-10-17 07:04:21
p8465
as(g3
g38
tp8466
(lp8467
V1 + 2 + 3 + 4 + 5
p8468
aV2016-10-18 00:06:38
p8469
as(g4
g14
tp8470
(lp8471
V0.2
p8472
aV2016-10-17 19:23:54
p8473
as(g38
g24
tp8474
(lp8475
V(16 + C(47,2)-C(43,2)) / C(47,2)
p8476
aV2016-10-17 22:43:24
p8477
as(g4
g38
tp8478
(lp8479
V0.5
p8480
aV2016-10-17 19:23:54
p8481
as(g3
g25
tp8482
(lp8483
V13
p8484
aV2016-10-18 00:06:38
p8485
as(g19
g25
tp8486
(lp8487
VC(28,5) - C(16,5)
p8488
aV2016-10-17 23:20:27
p8489
as(g14
g14
tp8490
(lp8491
V(94/100)*(1/10000)
p8492
aV2016-10-17 21:11:08
p8493
as(g38
g14
tp8494
(lp8495
VC(47,2)
p8496
aV2016-10-17 22:43:24
p8497
as(g3
g24
tp8498
(lp8499
V1
p8500
aV2016-10-18 00:06:38
p8501
as(g4
g19
tp8502
(lp8503
V0.75
p8504
aV2016-10-17 19:23:54
p8505
as(g24
g4
tp8506
(lp8507
V0.5 * 0.1
p8508
aV2016-10-17 21:24:00
p8509
as(g13
g25
tp8510
(lp8511
V3
p8512
aV2016-10-17 23:37:25
p8513
as(g25
g25
tp8514
(lp8515
V(0.5 + 0.4) - 0.5
p8516
aV2016-10-17 07:04:21
p8517
as(g91
g25
tp8518
(lp8519
V4*8
p8520
aV2016-10-17 22:48:46
p8521
as(g14
g4
tp8522
(lp8523
V(94/100)*1/10000 + (2/100)*(1-1/10000)
p8524
aV2016-10-17 21:11:08
p8525
as(g38
g4
tp8526
(lp8527
VC(47,2)-C(43,2)
p8528
aV2016-10-17 22:43:24
p8529
as(g24
g14
tp8530
(lp8531
V0.7
p8532
aV2016-10-17 21:24:00
p8533
as(g91
g4
tp8534
(lp8535
V32 / C(47,2)
p8536
aV2016-10-17 22:48:46
p8537
as(g3
g14
tp8538
(lp8539
V13*12
p8540
aV2016-10-18 00:06:38
p8541
as(g4
g25
tp8542
(lp8543
V0.2
p8544
aV2016-10-17 19:23:54
p8545
as(g13
g4
tp8546
(lp8547
V1 - 3/C(45,2)
p8548
aV2016-10-17 23:37:25
p8549
as(g14
g25
tp8550
(lp8551
V1/10000
p8552
aV2016-10-17 21:11:08
p8553
as(g19
g14
tp8554
(lp8555
V( C(28,5) - C(16,5) ) / ( C(52,5) - C(52 - 3*4,5) )
p8556
aV2016-10-17 23:20:27
p8557
as(g3
g91
tp8558
(lp8559
V15/ ( 13*12)
p8560
aV2016-10-18 00:06:38
p8561
as(g4
g91
tp8562
(lp8563
V0.15
p8564
aV2016-10-17 19:23:54
p8565
as(g4
g24
tp8566
(lp8567
V0.5
p8568
aV2016-10-17 19:23:54
p8569
as(g25
g14
tp8570
(lp8571
V1
p8572
aV2016-10-17 07:04:21
p8573
as(g38
g25
tp8574
(lp8575
V16
p8576
aV2016-10-17 22:43:24
p8577
assS'ThuanNguyen'
p8578
(dp8579
(g4
g14
tp8580
(lp8581
V0.2
p8582
aV2016-10-17 05:44:52
p8583
as(g25
g25
tp8584
(lp8585
V0.08
p8586
aV2016-10-17 04:45:08
p8587
as(g4
g4
tp8588
(lp8589
V0.2
p8590
aV2016-10-17 05:44:52
p8591
as(g4
g25
tp8592
(lp8593
V0.2
p8594
aV2016-10-17 05:44:52
p8595
as(g4
g19
tp8596
(lp8597
V0.2/0.2
p8598
aV2016-10-17 05:44:52
p8599
as(g4
g91
tp8600
(lp8601
V0.2
p8602
aV2016-10-17 05:44:52
p8603
as(g25
g4
tp8604
(lp8605
V2/5
p8606
aV2016-10-17 04:45:08
p8607
as(g4
g38
tp8608
(lp8609
V0.2/0.35
p8610
aV2016-10-17 05:44:52
p8611
as(g25
g14
tp8612
(lp8613
V0
p8614
aV2016-10-17 04:45:08
p8615
as(g4
g24
tp8616
(lp8617
V0.2/0.35
p8618
aV2016-10-17 05:44:52
p8619
assS'NicoleStone'
p8620
(dp8621
(g91
g4
tp8622
(lp8623
V32/C(47,2)
p8624
aV2016-10-16 04:23:02
p8625
as(g3
g4
tp8626
(lp8627
V13
p8628
aV2016-10-16 04:39:47
p8629
as(g25
g25
tp8630
(lp8631
V.04
p8632
aV2016-10-16 03:53:19
p8633
as(g91
g25
tp8634
(lp8635
V32
p8636
aV2016-10-16 04:23:02
p8637
as(g24
g25
tp8638
(lp8639
V.06*.5
p8640
aV2016-10-16 04:08:39
p8641
as(g38
g24
tp8642
(lp8643
V(4*4*4*46)/C(47,2)
p8644
aV2016-10-16 04:26:49
p8645
as(g3
g24
tp8646
(lp8647
V9
p8648
aV2016-10-16 04:39:47
p8649
as(g3
g25
tp8650
(lp8651
V14
p8652
aV2016-10-16 04:39:47
p8653
as(g3
g14
tp8654
(lp8655
V14*13
p8656
aV2016-10-16 04:39:47
p8657
as(g38
g4
tp8658
(lp8659
V4*46
p8660
aV2016-10-16 04:26:49
p8661
as(g3
g91
tp8662
(lp8663
V(12+11+10+9+8+7+6+5+4+3+2+1)/(14*13)
p8664
aV2016-10-16 04:39:47
p8665
as(g38
g14
tp8666
(lp8667
VC(47,2)
p8668
aV2016-10-16 04:26:49
p8669
as(g25
g4
tp8670
(lp8671
V.04/.2
p8672
aV2016-10-16 03:53:19
p8673
as(g24
g4
tp8674
(lp8675
V(.06*.5)+(.03*.5)
p8676
aV2016-10-16 04:08:39
p8677
as(g24
g14
tp8678
(lp8679
V(.06*.5)/((.06*.5)+(.03*.5))
p8680
aV2016-10-16 04:08:39
p8681
as(g25
g14
tp8682
(lp8683
V0
p8684
aV2016-10-16 03:53:19
p8685
as(g3
g38
tp8686
(lp8687
V(12+11+10+9+8+7+6+5+4+3+2+1)
p8688
aV2016-10-16 04:39:47
p8689
as(g38
g25
tp8690
(lp8691
V4*4
p8692
aV2016-10-16 04:26:49
p8693
assS'nolin'
p8694
(dp8695
(g4
g14
tp8696
(lp8697
V.2+.25-.35
p8698
aV2016-10-17 23:03:51
p8699
as(g25
g25
tp8700
(lp8701
V.4*.1
p8702
aV2016-10-17 22:23:20
p8703
as(g4
g4
tp8704
(lp8705
V.2+.25-.35
p8706
aV2016-10-17 23:03:51
p8707
as(g4
g25
tp8708
(lp8709
V.2+.2-.3
p8710
aV2016-10-17 23:03:51
p8711
as(g4
g38
tp8712
(lp8713
V.1/.2
p8714
aV2016-10-17 23:03:51
p8715
as(g14
g25
tp8716
(lp8717
V1/10000
p8718
aV2016-10-17 23:28:10
p8719
as(g14
g4
tp8720
(lp8721
V(93/100)(1/10000)+(2/100)(9999/10000)
p8722
aV2016-10-17 23:28:10
p8723
as(g24
g25
tp8724
(lp8725
V.06*.5
p8726
aV2016-10-17 23:34:40
p8727
as(g4
g91
tp8728
(lp8729
V.45-.2-.2-.25+.1+.1+.1
p8730
aV2016-10-17 23:03:51
p8731
as(g25
g4
tp8732
(lp8733
V.4
p8734
aV2016-10-17 22:23:20
p8735
as(g24
g4
tp8736
(lp8737
V(.06*.5)+(.03*.5)
p8738
aV2016-10-17 23:34:40
p8739
as(g24
g14
tp8740
(lp8741
V(.06*.5)/((.06*.5)+(.03*.5))
p8742
aV2016-10-17 23:34:40
p8743
as(g25
g14
tp8744
(lp8745
V1
p8746
aV2016-10-17 22:23:20
p8747
as(g4
g19
tp8748
(lp8749
V(.45-.2-.2-.25+.1+.1+.1)/.1
p8750
aV2016-10-17 23:03:51
p8751
as(g4
g24
tp8752
(lp8753
V.1/.2
p8754
aV2016-10-17 23:03:51
p8755
assS'Ryan'
p8756
(dp8757
(g4
g14
tp8758
(lp8759
V0.2 + 0.3 - 0.4
p8760
aV2016-10-18 16:51:43
p8761
as(g4
g91
tp8762
(lp8763
V0.6 - 0.3 - 0.3 - 0.2 + 0.3 + 0.3 - 0.45 + 0.3 + 0.2 - 0.4 + 0.2 + 0.3 - 0.4
p8764
aV2016-10-18 16:51:43
p8765
as(g38
g4
tp8766
(lp8767
VC(47,2) - C(43,2)
p8768
aV2016-10-18 17:44:54
p8769
as(g4
g25
tp8770
(lp8771
V0.3 + 0.3 - 0.45
p8772
aV2016-10-18 16:51:43
p8773
as(g38
g24
tp8774
(lp8775
V(16 + C(47,2) - C(43,2)) / C(47,2)
p8776
aV2016-10-18 17:44:54
p8777
as(g4
g38
tp8778
(lp8779
V(0.3 + 0.3 - 0.45)/0.3
p8780
aV2016-10-18 16:51:43
p8781
as(g25
g14
tp8782
(lp8783
V1
p8784
aV2016-10-18 16:33:23
p8785
as(g4
g4
tp8786
(lp8787
V0.3 + 0.2 - 0.4
p8788
aV2016-10-18 16:51:43
p8789
as(g14
g25
tp8790
(lp8791
V1/10000
p8792
aV2016-10-18 17:08:08
p8793
as(g25
g25
tp8794
(lp8795
V0.05
p8796
aV2016-10-18 16:33:23
p8797
as(g14
g4
tp8798
(lp8799
V(0.92 * (1/10000) + 0.02 * (9999/10000))
p8800
aV2016-10-18 17:08:08
p8801
as(g4
g24
tp8802
(lp8803
V(0.3 + 0.3 - 0.45)/0.3
p8804
aV2016-10-18 16:51:43
p8805
as(g24
g25
tp8806
(lp8807
V0.06 * 0.5
p8808
aV2016-10-18 17:13:27
p8809
as(g14
g14
tp8810
(lp8811
V(0.92) * (1/10000)
p8812
aV2016-10-18 17:08:08
p8813
as(g38
g14
tp8814
(lp8815
VC(47,2)
p8816
aV2016-10-18 17:44:54
p8817
as(g14
g24
tp8818
(lp8819
V((0.92) * (1/10000))/(0.92 * (1/10000) + 0.02 * (9999/10000))
p8820
aV2016-10-18 17:08:08
p8821
as(g38
g25
tp8822
(lp8823
V16
p8824
aV2016-10-18 17:44:54
p8825
as(g24
g14
tp8826
(lp8827
V0.06 * 0.5 / (0.06 * 0.5 + 0.03 * 0.5)
p8828
aV2016-10-18 17:13:27
p8829
as(g25
g4
tp8830
(lp8831
V0.05/0.1
p8832
aV2016-10-18 16:33:23
p8833
as(g4
g19
tp8834
(lp8835
V(0.6 - 0.3 - 0.3 - 0.2 + 0.3 + 0.3 - 0.45 + 0.3 + 0.2 - 0.4 + 0.2 + 0.3 - 0.4)/(0.3 + 0.2 - 0.4)
p8836
aV2016-10-18 16:51:43
p8837
as(g24
g4
tp8838
(lp8839
V(0.06 * 0.5 + 0.03 * 0.5)
p8840
aV2016-10-18 17:13:27
p8841
assS'Joonhan'
p8842
(dp8843
(g4
g14
tp8844
(lp8845
V0.15
p8846
aV2016-10-17 20:16:58
p8847
as(g25
g25
tp8848
(lp8849
V0.01
p8850
aV2016-10-17 19:03:06
p8851
as(g4
g4
tp8852
(lp8853
V0.15
p8854
aV2016-10-17 20:16:58
p8855
as(g4
g25
tp8856
(lp8857
V0.1
p8858
aV2016-10-17 20:16:58
p8859
as(g4
g19
tp8860
(lp8861
V0.15/0.15
p8862
aV2016-10-17 20:16:58
p8863
as(g4
g91
tp8864
(lp8865
V0.15
p8866
aV2016-10-17 20:16:58
p8867
as(g25
g4
tp8868
(lp8869
V0.01/0.1
p8870
aV2016-10-17 19:03:06
p8871
as(g4
g38
tp8872
(lp8873
V0.1/0.3
p8874
aV2016-10-17 20:16:58
p8875
as(g25
g14
tp8876
(lp8877
V1
p8878
aV2016-10-17 19:03:06
p8879
as(g4
g24
tp8880
(lp8881
V0.1/0.3
p8882
aV2016-10-17 20:16:58
p8883
assS'JonahCruz'
p8884
(dp8885
(g4
g25
tp8886
(lp8887
V.4*.3
p8888
aV2016-10-18 06:37:36
p8889
as(g25
g4
tp8890
(lp8891
V(0.3*0.2)/0.2
p8892
aV2016-10-18 00:39:15
p8893
as(g25
g25
tp8894
(lp8895
V0.3*0.2
p8896
aV2016-10-18 00:39:15
p8897
as(g25
g14
tp8898
(lp8899
V1
p8900
aV2016-10-18 00:39:15
p8901
assS'Lpascual'
p8902
(dp8903
(g4
g25
tp8904
(lp8905
V(0.35+0.3)/0.5
p8906
aV2016-10-17 05:26:27
p8907
as(g4
g14
tp8908
(lp8909
V(0.35+0.4)/0.55
p8910
aV2016-10-17 05:26:27
p8911
as(g4
g38
tp8912
(lp8913
V(((0.35+0.3)/0.5)/0.35)
p8914
aV2016-10-17 05:26:27
p8915
as(g4
g4
tp8916
(lp8917
V(0.3+0.4)/0.5
p8918
aV2016-10-17 05:26:27
p8919
as(g4
g24
tp8920
(lp8921
V(((0.35+0.3)/0.5)/0.3)
p8922
aV2016-10-17 05:26:27
p8923
assS'KevinKlein'
p8924
(dp8925
(g3
g4
tp8926
(lp8927
V12
p8928
aV2016-10-18 06:11:54
p8929
as(g4
g4
tp8930
(lp8931
V.25+.3-.4
p8932
aV2016-10-18 02:12:36
p8933
as(g13
g14
tp8934
(lp8935
V1- (3/C(45, 2) + 3/C(43,2))
p8936
aV2016-10-18 05:48:49
p8937
as(g19
g4
tp8938
(lp8939
VC(52,5)-C(40,5)
p8940
aV2016-10-18 03:47:59
p8941
as(g24
g25
tp8942
(lp8943
V.06*.5
p8944
aV2016-10-18 02:24:24
p8945
as(g14
g24
tp8946
(lp8947
V(.95/10000)/(.95/10000+.02*9999/10000)
p8948
aV2016-10-18 02:21:54
p8949
as(g25
g4
tp8950
(lp8951
V.4/.5
p8952
aV2016-10-18 02:04:14
p8953
as(g3
g38
tp8954
(lp8955
V9+8+7+6+5+4+3+2+1
p8956
aV2016-10-18 06:11:54
p8957
as(g4
g14
tp8958
(lp8959
V.3+.3-.45
p8960
aV2016-10-18 02:12:36
p8961
as(g38
g24
tp8962
(lp8963
V(16+C(47,2)-C(43,2))/C(47,2)
p8964
aV2016-10-18 02:49:01
p8965
as(g4
g38
tp8966
(lp8967
V(.3+.25-.4)/.3
p8968
aV2016-10-18 02:12:36
p8969
as(g3
g25
tp8970
(lp8971
V13
p8972
aV2016-10-18 06:11:54
p8973
as(g19
g25
tp8974
(lp8975
VC(32,5)-C(20,5)
p8976
aV2016-10-18 03:47:59
p8977
as(g14
g14
tp8978
(lp8979
V.95/10000
p8980
aV2016-10-18 02:21:54
p8981
as(g38
g14
tp8982
(lp8983
VC(47,2)
p8984
aV2016-10-18 02:49:01
p8985
as(g3
g24
tp8986
(lp8987
V4
p8988
aV2016-10-18 06:11:54
p8989
as(g4
g19
tp8990
(lp8991
V(.6-.3-.25-.3+(.3+.25-.4)+(.3+.3-.45)+(.25+.3-.4))/(.25+.3-.4)
p8992
aV2016-10-18 02:12:36
p8993
as(g24
g4
tp8994
(lp8995
V.06*.5+.04*.5
p8996
aV2016-10-18 02:24:24
p8997
as(g13
g25
tp8998
(lp8999
V3
p9000
aV2016-10-18 05:48:49
p9001
as(g25
g25
tp9002
(lp9003
V.4
p9004
aV2016-10-18 02:04:14
p9005
as(g91
g25
tp9006
(lp9007
V4*8
p9008
aV2016-10-18 03:24:00
p9009
as(g14
g4
tp9010
(lp9011
V.95/10000+.02*9999/10000
p9012
aV2016-10-18 02:21:54
p9013
as(g38
g4
tp9014
(lp9015
VC(47,2)-C(43,2)
p9016
aV2016-10-18 02:49:01
p9017
as(g24
g14
tp9018
(lp9019
V(.06*.5)/(.06*.5+.04*.5)
p9020
aV2016-10-18 02:24:24
p9021
as(g91
g4
tp9022
(lp9023
V4*8/C(47,2)
p9024
aV2016-10-18 03:24:00
p9025
as(g3
g14
tp9026
(lp9027
V156
p9028
aV2016-10-18 06:11:54
p9029
as(g4
g25
tp9030
(lp9031
V.3+.25-.4
p9032
aV2016-10-18 02:12:36
p9033
as(g13
g4
tp9034
(lp9035
V1-3/C(45, 2)
p9036
aV2016-10-18 05:48:49
p9037
as(g14
g25
tp9038
(lp9039
V1/10000
p9040
aV2016-10-18 02:21:54
p9041
as(g19
g14
tp9042
(lp9043
V(C(32,5)-C(20,5))/(C(52,5)-C(40,5))
p9044
aV2016-10-18 03:47:59
p9045
as(g3
g91
tp9046
(lp9047
V(9+8+7+6+5+4+3+2+1)/156
p9048
aV2016-10-18 06:11:54
p9049
as(g4
g91
tp9050
(lp9051
V.6-.3-.25-.3+(.3+.25-.4)+(.3+.3-.45)+(.25+.3-.4)
p9052
aV2016-10-18 02:12:36
p9053
as(g4
g24
tp9054
(lp9055
V(.3+.25-.4)/.25
p9056
aV2016-10-18 02:12:36
p9057
as(g25
g14
tp9058
(lp9059
V0
p9060
aV2016-10-18 02:04:14
p9061
as(g38
g25
tp9062
(lp9063
V16
p9064
aV2016-10-18 02:49:01
p9065
assS'KimberlyLy'
p9066
(dp9067
(g3
g4
tp9068
(lp9069
V11
p9070
aV2016-10-18 22:07:58
p9071
as(g4
g4
tp9072
(lp9073
V0.1
p9074
aV2016-10-18 20:34:11
p9075
as(g19
g4
tp9076
(lp9077
VC(52,5) - C(40,5)
p9078
aV2016-10-18 21:50:23
p9079
as(g24
g25
tp9080
(lp9081
V.06 * .5
p9082
aV2016-10-18 21:07:26
p9083
as(g14
g24
tp9084
(lp9085
V0.92 * 10^(-4) / (0.92 * 10^(-4) + .01 * (1-10^(-4)))
p9086
aV2016-10-18 20:57:12
p9087
as(g25
g4
tp9088
(lp9089
V.4
p9090
aV2016-10-16 20:06:24
p9091
as(g3
g38
tp9092
(lp9093
V21
p9094
aV2016-10-18 22:07:58
p9095
as(g4
g14
tp9096
(lp9097
V0.1
p9098
aV2016-10-18 20:34:11
p9099
as(g38
g24
tp9100
(lp9101
V(4 * 4 + C(47,2) - C(43,2)) / (C(47,2))
p9102
aV2016-10-18 21:22:22
p9103
as(g4
g38
tp9104
(lp9105
V0.1 / 0.2
p9106
aV2016-10-18 20:34:11
p9107
as(g3
g25
tp9108
(lp9109
V12
p9110
aV2016-10-18 22:07:58
p9111
as(g19
g25
tp9112
(lp9113
VC(32,5) - C(20,5)
p9114
aV2016-10-18 21:50:23
p9115
as(g14
g14
tp9116
(lp9117
V0.92 * 10^(-4)
p9118
aV2016-10-18 20:57:12
p9119
as(g38
g14
tp9120
(lp9121
VC(47,2)
p9122
aV2016-10-18 21:22:22
p9123
as(g3
g24
tp9124
(lp9125
V4
p9126
aV2016-10-18 22:07:58
p9127
as(g4
g19
tp9128
(lp9129
V1
p9130
aV2016-10-18 20:34:11
p9131
as(g24
g4
tp9132
(lp9133
V.06 * .5 + .03 * .5
p9134
aV2016-10-18 21:07:26
p9135
as(g25
g25
tp9136
(lp9137
V.04
p9138
aV2016-10-16 20:06:24
p9139
as(g91
g25
tp9140
(lp9141
V32
p9142
aV2016-10-18 21:39:00
p9143
as(g14
g4
tp9144
(lp9145
V0.92 * 10^(-4) + .01 * (1-10^(-4))
p9146
aV2016-10-18 20:57:12
p9147
as(g38
g4
tp9148
(lp9149
VC(47,2) - C(43,2)
p9150
aV2016-10-18 21:22:22
p9151
as(g24
g14
tp9152
(lp9153
V(.06 * .5) / (.06 * .5 + .03 * .5)
p9154
aV2016-10-18 21:07:26
p9155
as(g91
g4
tp9156
(lp9157
V32/C(47,2)
p9158
aV2016-10-18 21:39:00
p9159
as(g3
g14
tp9160
(lp9161
V12 * 11
p9162
aV2016-10-18 22:07:58
p9163
as(g4
g25
tp9164
(lp9165
V0.1
p9166
aV2016-10-18 20:34:11
p9167
as(g14
g25
tp9168
(lp9169
V10^(-4)
p9170
aV2016-10-18 20:57:12
p9171
as(g19
g14
tp9172
(lp9173
V(C(32,5) - C(20,5)) / (C(52,5) - C(40,5))
p9174
aV2016-10-18 21:50:23
p9175
as(g3
g91
tp9176
(lp9177
V21/(12 * 11)
p9178
aV2016-10-18 22:07:58
p9179
as(g4
g91
tp9180
(lp9181
V.1
p9182
aV2016-10-18 20:34:11
p9183
as(g4
g24
tp9184
(lp9185
V0.1 / 0.2
p9186
aV2016-10-18 20:34:11
p9187
as(g25
g14
tp9188
(lp9189
V1
p9190
aV2016-10-16 20:06:24
p9191
as(g38
g25
tp9192
(lp9193
V4 * 4
p9194
aV2016-10-18 21:22:22
p9195
assS'maxcjx'
p9196
(dp9197
(g3
g4
tp9198
(lp9199
V11
p9200
aV2016-10-18 04:33:04
p9201
as(g4
g4
tp9202
(lp9203
V0.15
p9204
aV2016-10-18 20:23:22
p9205
as(g13
g14
tp9206
(lp9207
V1-5416/(990*903)
p9208
aV2016-10-18 04:27:07
p9209
as(g19
g4
tp9210
(lp9211
V1940952
p9212
aV2016-10-18 04:10:30
p9213
as(g24
g25
tp9214
(lp9215
V0.07*0.5
p9216
aV2016-10-17 18:35:03
p9217
as(g14
g24
tp9218
(lp9219
V(0.95*(1/10000))/(0.95*(1/10000)+0.02*(9999/10000))
p9220
aV2016-10-17 18:30:59
p9221
as(g25
g4
tp9222
(lp9223
V0.2/0.4
p9224
aV2016-10-17 18:14:51
p9225
as(g3
g38
tp9226
(lp9227
V1+2+3+4+5+6+7+8+9
p9228
aV2016-10-18 04:33:04
p9229
as(g4
g14
tp9230
(lp9231
V0.15
p9232
aV2016-10-18 20:23:22
p9233
as(g38
g24
tp9234
(lp9235
V194/1081
p9236
aV2016-10-18 04:12:43
p9237
as(g4
g38
tp9238
(lp9239
V0.15/0.25
p9240
aV2016-10-18 20:23:22
p9241
as(g3
g25
tp9242
(lp9243
V12
p9244
aV2016-10-18 04:33:04
p9245
as(g19
g25
tp9246
(lp9247
V201376-15504
p9248
aV2016-10-18 04:10:30
p9249
as(g14
g14
tp9250
(lp9251
V0.95*(1/10000)
p9252
aV2016-10-17 18:30:59
p9253
as(g38
g14
tp9254
(lp9255
V1081
p9256
aV2016-10-18 04:12:43
p9257
as(g3
g24
tp9258
(lp9259
V4
p9260
aV2016-10-18 04:33:04
p9261
as(g4
g19
tp9262
(lp9263
V0.2/0.15
p9264
aV2016-10-18 20:23:22
p9265
as(g24
g4
tp9266
(lp9267
V0.07*0.5+0.03*0.5 
p9268
aV2016-10-17 18:35:03
p9269
as(g13
g25
tp9270
(lp9271
V3
p9272
aV2016-10-18 04:27:07
p9273
as(g25
g25
tp9274
(lp9275
V0.2
p9276
aV2016-10-17 18:14:51
p9277
as(g91
g25
tp9278
(lp9279
V4*2*4
p9280
aV2016-10-18 03:40:37
p9281
as(g14
g4
tp9282
(lp9283
V0.95*(1/10000)+0.02*(9999/10000)
p9284
aV2016-10-17 18:30:59
p9285
as(g38
g4
tp9286
(lp9287
V178
p9288
aV2016-10-18 04:12:43
p9289
as(g24
g14
tp9290
(lp9291
V(0.07*0.5)/(0.07*0.5+0.03*0.5 )
p9292
aV2016-10-17 18:35:03
p9293
as(g91
g4
tp9294
(lp9295
V32/1081
p9296
aV2016-10-18 03:40:37
p9297
as(g3
g14
tp9298
(lp9299
V12*11
p9300
aV2016-10-18 04:33:04
p9301
as(g4
g25
tp9302
(lp9303
V0.15
p9304
aV2016-10-18 20:23:22
p9305
as(g13
g4
tp9306
(lp9307
V1-3/990
p9308
aV2016-10-18 04:27:07
p9309
as(g14
g25
tp9310
(lp9311
V1/10000
p9312
aV2016-10-17 18:30:59
p9313
as(g19
g14
tp9314
(lp9315
V(201376-15504)/1940952
p9316
aV2016-10-18 04:10:30
p9317
as(g3
g91
tp9318
(lp9319
V45/(12*11)
p9320
aV2016-10-18 04:33:04
p9321
as(g4
g91
tp9322
(lp9323
V0.2
p9324
aV2016-10-18 20:23:22
p9325
as(g4
g24
tp9326
(lp9327
V0.15/0.3
p9328
aV2016-10-18 20:23:22
p9329
as(g25
g14
tp9330
(lp9331
V1
p9332
aV2016-10-17 18:14:51
p9333
as(g38
g25
tp9334
(lp9335
V16
p9336
aV2016-10-18 04:12:43
p9337
assS'yazin-yousif'
p9338
(dp9339
(g4
g14
tp9340
(lp9341
V0.2
p9342
aV2016-10-17 05:22:46
p9343
as(g25
g25
tp9344
(lp9345
V0.06
p9346
aV2016-10-16 04:33:44
p9347
as(g4
g4
tp9348
(lp9349
V0.2
p9350
aV2016-10-17 05:22:46
p9351
as(g4
g25
tp9352
(lp9353
V0.2
p9354
aV2016-10-17 05:22:46
p9355
as(g4
g38
tp9356
(lp9357
V0.2/0.35
p9358
aV2016-10-17 05:22:46
p9359
as(g25
g14
tp9360
(lp9361
V1
p9362
aV2016-10-16 04:33:44
p9363
as(g14
g25
tp9364
(lp9365
V1/10000
p9366
aV2016-10-18 17:15:31
p9367
as(g14
g4
tp9368
(lp9369
V0.020092
p9370
aV2016-10-18 17:15:31
p9371
as(g24
g25
tp9372
(lp9373
V0.035
p9374
aV2016-10-18 17:25:07
p9375
as(g14
g14
tp9376
(lp9377
V0.000094
p9378
aV2016-10-18 17:15:31
p9379
as(g4
g91
tp9380
(lp9381
V0.15
p9382
aV2016-10-17 05:22:46
p9383
as(g14
g24
tp9384
(lp9385
V0.000094/0.020092
p9386
aV2016-10-18 17:15:31
p9387
as(g4
g24
tp9388
(lp9389
V0.5
p9390
aV2016-10-17 05:22:46
p9391
as(g24
g14
tp9392
(lp9393
V(0.035)/(0.055)
p9394
aV2016-10-18 17:25:07
p9395
as(g25
g4
tp9396
(lp9397
V0.06/0.3
p9398
aV2016-10-16 04:33:44
p9399
as(g4
g19
tp9400
(lp9401
V0.75
p9402
aV2016-10-17 05:22:46
p9403
as(g24
g4
tp9404
(lp9405
V0.055
p9406
aV2016-10-18 17:25:07
p9407
assS'kyle'
p9408
(dp9409
(g4
g14
tp9410
(lp9411
V0.3+0.2-0.4
p9412
aV2016-10-18 21:19:14
p9413
as(g25
g25
tp9414
(lp9415
V0.2
p9416
aV2016-10-18 20:51:14
p9417
as(g4
g4
tp9418
(lp9419
V0.3+0.2-0.4
p9420
aV2016-10-18 21:19:14
p9421
as(g4
g25
tp9422
(lp9423
V0.3+0.3-0.45
p9424
aV2016-10-18 21:19:14
p9425
as(g4
g38
tp9426
(lp9427
V(0.3+0.3-0.45)/0.3
p9428
aV2016-10-18 21:19:14
p9429
as(g25
g14
tp9430
(lp9431
V1
p9432
aV2016-10-18 20:51:14
p9433
as(g14
g25
tp9434
(lp9435
V0.0001
p9436
aV2016-10-18 21:36:30
p9437
as(g14
g4
tp9438
(lp9439
V0.94*0.0001+0.01*0.9999
p9440
aV2016-10-18 21:36:30
p9441
as(g24
g25
tp9442
(lp9443
V0.07*0.5
p9444
aV2016-10-18 21:49:22
p9445
as(g14
g14
tp9446
(lp9447
V0.94*0.0001
p9448
aV2016-10-18 21:36:30
p9449
as(g4
g91
tp9450
(lp9451
V0.6-0.3-0.3-0.2+0.15+0.1+0.1
p9452
aV2016-10-18 21:19:14
p9453
as(g14
g24
tp9454
(lp9455
V(0.94*0.0001)/(0.94*0.0001+0.01*0.9999)
p9456
aV2016-10-18 21:36:30
p9457
as(g4
g24
tp9458
(lp9459
V(0.3+0.3-0.45)/0.3
p9460
aV2016-10-18 21:19:14
p9461
as(g24
g14
tp9462
(lp9463
V(0.07*0.5)/(0.07*0.5+0.03*0.5)
p9464
aV2016-10-18 21:49:22
p9465
as(g25
g4
tp9466
(lp9467
V 0.5
p9468
aV2016-10-18 20:51:14
p9469
as(g4
g19
tp9470
(lp9471
V0.15/0.1
p9472
aV2016-10-18 21:19:14
p9473
as(g24
g4
tp9474
(lp9475
V0.07*0.5+0.03*0.5
p9476
aV2016-10-18 21:49:22
p9477
assS'k1siu'
p9478
(dp9479
(g3
g4
tp9480
(lp9481
V(n-1)*(n-2)
p9482
aV2016-10-16 05:28:33
p9483
as(g4
g4
tp9484
(lp9485
V0.3+0.3-0.5
p9486
aV2016-10-16 03:41:29
p9487
as(g13
g14
tp9488
(lp9489
V(1-3/C(52-7,2))*(1-3/C(52-9,2))
p9490
aV2016-10-16 05:19:05
p9491
as(g19
g4
tp9492
(lp9493
VC(52,5)-C(40,5)
p9494
aV2016-10-16 05:17:45
p9495
as(g24
g25
tp9496
(lp9497
V(0.06)*(0.5)
p9498
aV2016-10-16 05:05:22
p9499
as(g14
g24
tp9500
(lp9501
V(0.93*0.0001)/((0.93*0.0001) + (0.02*(1-0.0001)))
p9502
aV2016-10-16 04:24:08
p9503
as(g3
g38
tp9504
(lp9505
V(n-x)*(n-x-1)/2
p9506
aV2016-10-16 05:28:33
p9507
as(g4
g14
tp9508
(lp9509
V0.3+0.3-0.5
p9510
aV2016-10-16 03:41:29
p9511
as(g38
g24
tp9512
(lp9513
V(C(52-5,2)-C(52-5-4,2)+4**2)/C(52-5,2)
p9514
aV2016-10-16 05:12:07
p9515
as(g4
g38
tp9516
(lp9517
V(0.3+0.3-0.45)/(0.3)
p9518
aV2016-10-16 03:41:29
p9519
as(g3
g25
tp9520
(lp9521
V(n-1)*(n-2)
p9522
aV2016-10-16 05:28:33
p9523
as(g19
g25
tp9524
(lp9525
VC(32,5)-C(20,5)
p9526
aV2016-10-16 05:17:45
p9527
as(g14
g14
tp9528
(lp9529
V0.93*0.0001
p9530
aV2016-10-16 04:24:08
p9531
as(g38
g14
tp9532
(lp9533
VC(47,2)
p9534
aV2016-10-16 05:12:07
p9535
as(g3
g24
tp9536
(lp9537
V(y-x-1)
p9538
aV2016-10-16 05:28:33
p9539
as(g4
g19
tp9540
(lp9541
V(0.55-(0.3+0.3-0.45)-(0.3+0.3-0.5)-(0.3+0.3-0.5)+(3*0.3))/(0.3+0.3-0.5)
p9542
aV2016-10-16 03:41:29
p9543
as(g24
g4
tp9544
(lp9545
V((0.06)*(0.5)+(0.04)*(0.5))
p9546
aV2016-10-16 05:05:22
p9547
as(g13
g25
tp9548
(lp9549
V3
p9550
aV2016-10-16 05:19:05
p9551
as(g91
g25
tp9552
(lp9553
V4*8
p9554
aV2016-10-16 05:17:09
p9555
as(g14
g4
tp9556
(lp9557
V(0.93*0.0001) + (0.02*(1-0.0001))
p9558
aV2016-10-16 04:24:08
p9559
as(g38
g4
tp9560
(lp9561
VC(52-5,2)-C(52-5-4,2)
p9562
aV2016-10-16 05:12:07
p9563
as(g24
g14
tp9564
(lp9565
V(0.06)*(0.5)/((0.06)*(0.5)+(0.04)*(0.5))
p9566
aV2016-10-16 05:05:22
p9567
as(g91
g4
tp9568
(lp9569
V4*8/C(52-5,2)
p9570
aV2016-10-16 05:17:09
p9571
as(g3
g14
tp9572
(lp9573
V(n-1)*(n-2)
p9574
aV2016-10-16 05:28:33
p9575
as(g4
g25
tp9576
(lp9577
V0.3+0.3-0.45
p9578
aV2016-10-16 03:41:29
p9579
as(g13
g4
tp9580
(lp9581
V1-3/C(52-7,2)
p9582
aV2016-10-16 05:19:05
p9583
as(g14
g25
tp9584
(lp9585
V0.0001
p9586
aV2016-10-16 04:24:08
p9587
as(g19
g14
tp9588
(lp9589
V(C(32,5)-C(20,5))/(C(52,5)-C(40,5))
p9590
aV2016-10-16 05:17:45
p9591
as(g3
g91
tp9592
(lp9593
V(n-x-1)/2/((n-1)*(n-2))
p9594
aV2016-10-16 05:28:33
p9595
as(g4
g91
tp9596
(lp9597
V0.55-(0.3+0.3-0.45)-(0.3+0.3-0.5)-(0.3+0.3-0.5)+(3*0.3)
p9598
aV2016-10-16 03:41:29
p9599
as(g4
g24
tp9600
(lp9601
V(0.3+0.3-0.45)/(0.3)
p9602
aV2016-10-16 03:41:29
p9603
as(g38
g25
tp9604
(lp9605
V4^2
p9606
aV2016-10-16 05:12:07
p9607
assS'PizzaPolice'
p9608
(dp9609
(g3
g4
tp9610
(lp9611
V13
p9612
aV2016-10-17 08:41:58
p9613
as(g4
g4
tp9614
(lp9615
V.25 + .2 - .35
p9616
aV2016-10-17 07:40:35
p9617
as(g13
g14
tp9618
(lp9619
V(1- (3/C(47,2)))^2
p9620
aV2016-10-17 08:35:57
p9621
as(g19
g4
tp9622
(lp9623
VC(52,5) - C(40,5)
p9624
aV2016-10-17 08:33:20
p9625
as(g24
g25
tp9626
(lp9627
V.07 * .5
p9628
aV2016-10-17 07:52:33
p9629
as(g14
g24
tp9630
(lp9631
V(((.93 * .0001) + (.02 * .9999)) - (.9999 * .02)) / ((.93 * .0001) + (.02 * .9999))
p9632
aV2016-10-17 07:49:55
p9633
as(g25
g4
tp9634
(lp9635
V.5
p9636
aV2016-10-16 23:39:14
p9637
as(g3
g38
tp9638
(lp9639
V1 + 2 + 3 +4 + 5 + 6 + 7
p9640
aV2016-10-17 08:41:58
p9641
as(g4
g14
tp9642
(lp9643
V.3 + .2 - .4
p9644
aV2016-10-17 07:40:35
p9645
as(g38
g24
tp9646
(lp9647
V(C(4,2) + (4 * 43) + 16)/C(47,2)
p9648
aV2016-10-17 08:20:15
p9649
as(g4
g38
tp9650
(lp9651
V(.3 + .25 - .4) / .3
p9652
aV2016-10-17 07:40:35
p9653
as(g3
g25
tp9654
(lp9655
V14
p9656
aV2016-10-17 08:41:58
p9657
as(g19
g25
tp9658
(lp9659
VC(32,5) - C(20,5)
p9660
aV2016-10-17 08:33:20
p9661
as(g14
g14
tp9662
(lp9663
V((.93 * .0001) + (.02 * .9999)) - (.9999 * .02)
p9664
aV2016-10-17 07:49:55
p9665
as(g38
g14
tp9666
(lp9667
VC(47,2)
p9668
aV2016-10-17 08:20:15
p9669
as(g3
g24
tp9670
(lp9671
V1
p9672
aV2016-10-17 08:41:58
p9673
as(g4
g19
tp9674
(lp9675
V(.5 -.3 - .25 - .2 + (.3 + .2 - .4) + (.25 + .2 - .35) + (.3 + .25 - .4)) / (.25 + .2 - .35)
p9676
aV2016-10-17 07:40:35
p9677
as(g24
g4
tp9678
(lp9679
V(.07 * .5) + (.04 * .5)
p9680
aV2016-10-17 07:52:33
p9681
as(g13
g25
tp9682
(lp9683
V3
p9684
aV2016-10-17 08:35:57
p9685
as(g25
g25
tp9686
(lp9687
V0.15
p9688
aV2016-10-16 23:39:14
p9689
as(g91
g25
tp9690
(lp9691
V4 * 8
p9692
aV2016-10-17 08:21:09
p9693
as(g14
g4
tp9694
(lp9695
V(.93 * .0001) + (.02 * .9999)
p9696
aV2016-10-17 07:49:55
p9697
as(g38
g4
tp9698
(lp9699
VC(4,2) + (4 * 43)
p9700
aV2016-10-17 08:20:15
p9701
as(g24
g14
tp9702
(lp9703
V(.07 * .5) / ((.07 * .5) + (.04 * .5))
p9704
aV2016-10-17 07:52:33
p9705
as(g91
g4
tp9706
(lp9707
V32 / (C(47,2))
p9708
aV2016-10-17 08:21:09
p9709
as(g3
g14
tp9710
(lp9711
V14 * 13
p9712
aV2016-10-17 08:41:58
p9713
as(g4
g25
tp9714
(lp9715
V.3 + .25 - .4
p9716
aV2016-10-17 07:40:35
p9717
as(g13
g4
tp9718
(lp9719
V1- (3/C(47,2))
p9720
aV2016-10-17 08:35:57
p9721
as(g14
g25
tp9722
(lp9723
V.0001
p9724
aV2016-10-17 07:49:55
p9725
as(g19
g14
tp9726
(lp9727
V(C(32,5) - C(20,5)) / (C(52,5) - C(40,5))
p9728
aV2016-10-17 08:33:20
p9729
as(g3
g91
tp9730
(lp9731
V(1 + 2 + 3 +4 + 5 + 6 + 7) / (14 * 13)
p9732
aV2016-10-17 08:41:58
p9733
as(g4
g91
tp9734
(lp9735
V.5 -.3 - .25 - .2 + (.3 + .2 - .4) + (.25 + .2 - .35) + (.3 + .25 - .4)
p9736
aV2016-10-17 07:40:35
p9737
as(g4
g24
tp9738
(lp9739
V(.3 + .25 - .4) / .25
p9740
aV2016-10-17 07:40:35
p9741
as(g25
g14
tp9742
(lp9743
V1
p9744
aV2016-10-16 23:39:14
p9745
as(g38
g25
tp9746
(lp9747
V16
p9748
aV2016-10-17 08:20:15
p9749
assS'wheilson'
p9750
(dp9751
(g3
g4
tp9752
(lp9753
V13
p9754
aV2016-10-18 22:41:08
p9755
as(g4
g4
tp9756
(lp9757
V0.1
p9758
aV2016-10-18 21:42:16
p9759
as(g13
g14
tp9760
(lp9761
V1-6/C(52-5-6,2)
p9762
aV2016-10-18 22:21:41
p9763
as(g19
g4
tp9764
(lp9765
VC(52,5)-C(40,5)
p9766
aV2016-10-18 22:12:48
p9767
as(g24
g25
tp9768
(lp9769
V0.5*0.06
p9770
aV2016-10-18 21:45:28
p9771
as(g14
g24
tp9772
(lp9773
V0.95*1/10000/(0.95*1/10000+0.01*(1-1/10000))
p9774
aV2016-10-18 21:44:04
p9775
as(g25
g4
tp9776
(lp9777
V0.08/0.4
p9778
aV2016-10-17 18:27:41
p9779
as(g3
g38
tp9780
(lp9781
V21
p9782
aV2016-10-18 22:41:08
p9783
as(g4
g14
tp9784
(lp9785
V0.1
p9786
aV2016-10-18 21:42:16
p9787
as(g38
g24
tp9788
(lp9789
V(4*43+C(4,2)+4*4)/C(47,2)
p9790
aV2016-10-18 22:02:05
p9791
as(g4
g38
tp9792
(lp9793
V0.1/0.25
p9794
aV2016-10-18 21:42:16
p9795
as(g3
g25
tp9796
(lp9797
V14
p9798
aV2016-10-18 22:41:08
p9799
as(g19
g25
tp9800
(lp9801
VC(32,5)-C(20,5)
p9802
aV2016-10-18 22:12:48
p9803
as(g14
g14
tp9804
(lp9805
V0.95*1/10000
p9806
aV2016-10-18 21:44:04
p9807
as(g38
g14
tp9808
(lp9809
VC(47,2)
p9810
aV2016-10-18 22:02:05
p9811
as(g3
g24
tp9812
(lp9813
V2
p9814
aV2016-10-18 22:41:08
p9815
as(g4
g19
tp9816
(lp9817
V0.1/0.1
p9818
aV2016-10-18 21:42:16
p9819
as(g24
g4
tp9820
(lp9821
V0.5*0.06+0.5*0.03
p9822
aV2016-10-18 21:45:28
p9823
as(g13
g25
tp9824
(lp9825
V3
p9826
aV2016-10-18 22:21:41
p9827
as(g25
g25
tp9828
(lp9829
V0.1+0.4-0.42
p9830
aV2016-10-17 18:27:41
p9831
as(g91
g25
tp9832
(lp9833
V4*4*2
p9834
aV2016-10-18 22:04:03
p9835
as(g14
g4
tp9836
(lp9837
V0.95*1/10000+0.01*(1-1/10000)
p9838
aV2016-10-18 21:44:04
p9839
as(g38
g4
tp9840
(lp9841
V4*43+C(4,2)
p9842
aV2016-10-18 22:02:05
p9843
as(g24
g14
tp9844
(lp9845
V0.5*0.06/(0.5*0.06+0.5*0.03)
p9846
aV2016-10-18 21:45:28
p9847
as(g91
g4
tp9848
(lp9849
V4*4*2/C(47,2)
p9850
aV2016-10-18 22:04:03
p9851
as(g3
g14
tp9852
(lp9853
V14*13
p9854
aV2016-10-18 22:41:08
p9855
as(g4
g25
tp9856
(lp9857
V0.1
p9858
aV2016-10-18 21:42:16
p9859
as(g13
g4
tp9860
(lp9861
V1-3/C(52-5-4,2)
p9862
aV2016-10-18 22:21:41
p9863
as(g14
g25
tp9864
(lp9865
V1/10000
p9866
aV2016-10-18 21:44:04
p9867
as(g19
g14
tp9868
(lp9869
V(C(32,5)-C(20,5))/(C(52,5)-C(40,5))
p9870
aV2016-10-18 22:12:48
p9871
as(g3
g91
tp9872
(lp9873
V21/(14*13)
p9874
aV2016-10-18 22:41:08
p9875
as(g4
g91
tp9876
(lp9877
V0.6+0.1+0.1+0.1-0.8
p9878
aV2016-10-18 21:42:16
p9879
as(g4
g24
tp9880
(lp9881
V0.1/0.3
p9882
aV2016-10-18 21:42:16
p9883
as(g25
g14
tp9884
(lp9885
V0
p9886
aV2016-10-17 18:27:41
p9887
as(g38
g25
tp9888
(lp9889
V4*4
p9890
aV2016-10-18 22:02:05
p9891
ass.