(dp0
S'TickerInfo'
p1
ccopy_reg
_reconstructor
p2
(cpandas.core.frame
DataFrame
p3
c__builtin__
object
p4
Ntp5
Rp6
(dp7
S'_metadata'
p8
(lp9
sS'_typ'
p10
S'dataframe'
p11
sS'_data'
p12
g2
(cpandas.core.internals
BlockManager
p13
g4
Ntp14
Rp15
((lp16
cpandas.core.indexes.base
_new_Index
p17
(cpandas.core.indexes.base
Index
p18
(dp19
S'data'
p20
cnumpy.core.multiarray
_reconstruct
p21
(cnumpy
ndarray
p22
(I0
tp23
S'b'
p24
tp25
Rp26
(I1
(I3
tp27
cnumpy
dtype
p28
(S'O8'
p29
I0
I1
tp30
Rp31
(I3
S'|'
p32
NNNI-1
I-1
I63
tp33
bI00
(lp34
S'Ticker'
p35
aS'Sector'
p36
aS'SECTOR_ID'
p37
atp38
bsS'name'
p39
Nstp40
Rp41
ag17
(cpandas.core.indexes.range
RangeIndex
p42
(dp43
S'start'
p44
I0
sS'step'
p45
I1
sS'stop'
p46
I505
sg39
Nstp47
Rp48
a(lp49
g21
(g22
(I0
tp50
g24
tp51
Rp52
(I1
(I3
I505
tp53
g31
I00
(lp54
S'MMM'
p55
aS'ABT'
p56
aS'ABBV'
p57
aS'ACN'
p58
aS'ATVI'
p59
aS'AYI'
p60
aS'ADBE'
p61
aS'AMD'
p62
aS'AAP'
p63
aS'AES'
p64
aS'AET'
p65
aS'AMG'
p66
aS'AFL'
p67
aS'A'
p68
aS'APD'
p69
aS'AKAM'
p70
aS'ALK'
p71
aS'ALB'
p72
aS'ARE'
p73
aS'ALXN'
p74
aS'ALLE'
p75
aS'AGN'
p76
aS'ADS'
p77
aS'LNT'
p78
aS'ALL'
p79
aS'GOOGL'
p80
aS'GOOG'
p81
aS'MO'
p82
aS'AMZN'
p83
aS'AEE'
p84
aS'AAL'
p85
aS'AEP'
p86
aS'AXP'
p87
aS'AIG'
p88
aS'AMT'
p89
aS'AWK'
p90
aS'AMP'
p91
aS'ABC'
p92
aS'AME'
p93
aS'AMGN'
p94
aS'APH'
p95
aS'APC'
p96
aS'ADI'
p97
aS'ANTM'
p98
aS'AON'
p99
aS'APA'
p100
aS'AIV'
p101
aS'AAPL'
p102
aS'AMAT'
p103
aS'ADM'
p104
aS'ARNC'
p105
aS'AJG'
p106
aS'AIZ'
p107
aS'T'
p108
aS'ADSK'
p109
aS'ADP'
p110
aS'AN'
p111
aS'AZO'
p112
aS'AVB'
p113
aS'AVY'
p114
aS'BHI'
p115
aS'BLL'
p116
aS'BAC'
p117
aS'BK'
p118
aS'BCR'
p119
aS'BAX'
p120
aS'BBT'
p121
aS'BDX'
p122
aS'BBBY'
p123
aS'BRK.B'
p124
aS'BBY'
p125
aS'BIIB'
p126
aS'BLK'
p127
aS'HRB'
p128
aS'BA'
p129
aS'BWA'
p130
aS'BXP'
p131
aS'BSX'
p132
aS'BMY'
p133
aS'AVGO'
p134
aS'BF.B'
p135
aS'CHRW'
p136
aS'CA'
p137
aS'COG'
p138
aS'CPB'
p139
aS'COF'
p140
aS'CAH'
p141
aS'CBOE'
p142
aS'KMX'
p143
aS'CCL'
p144
aS'CAT'
p145
aS'CBG'
p146
aS'CBS'
p147
aS'CELG'
p148
aS'CNC'
p149
aS'CNP'
p150
aS'CTL'
p151
aS'CERN'
p152
aS'CF'
p153
aS'SCHW'
p154
aS'CHTR'
p155
aS'CHK'
p156
aS'CVX'
p157
aS'CMG'
p158
aS'CB'
p159
aS'CHD'
p160
aS'CI'
p161
aS'XEC'
p162
aS'CINF'
p163
aS'CTAS'
p164
aS'CSCO'
p165
aS'C'
p166
aS'CFG'
p167
aS'CTXS'
p168
aS'CLX'
p169
aS'CME'
p170
aS'CMS'
p171
aS'COH'
p172
aS'KO'
p173
aS'CTSH'
p174
aS'CL'
p175
aS'CMCSA'
p176
aS'CMA'
p177
aS'CAG'
p178
aS'CXO'
p179
aS'COP'
p180
aS'ED'
p181
aS'STZ'
p182
aS'COO'
p183
aS'GLW'
p184
aS'COST'
p185
aS'COTY'
p186
aS'CCI'
p187
aS'CSRA'
p188
aS'CSX'
p189
aS'CMI'
p190
aS'CVS'
p191
aS'DHI'
p192
aS'DHR'
p193
aS'DRI'
p194
aS'DVA'
p195
aS'DE'
p196
aS'DLPH'
p197
aS'DAL'
p198
aS'XRAY'
p199
aS'DVN'
p200
aS'DLR'
p201
aS'DFS'
p202
aS'DISCA'
p203
aS'DISCK'
p204
aS'DISH'
p205
aS'DG'
p206
aS'DLTR'
p207
aS'D'
p208
aS'DOV'
p209
aS'DOW'
p210
aS'DPS'
p211
aS'DTE'
p212
aS'DD'
p213
aS'DUK'
p214
aS'DXC'
p215
aS'ETFC'
p216
aS'EMN'
p217
aS'ETN'
p218
aS'EBAY'
p219
aS'ECL'
p220
aS'EIX'
p221
aS'EW'
p222
aS'EA'
p223
aS'EMR'
p224
aS'ETR'
p225
aS'EVHC'
p226
aS'EOG'
p227
aS'EQT'
p228
aS'EFX'
p229
aS'EQIX'
p230
aS'EQR'
p231
aS'ESS'
p232
aS'EL'
p233
aS'ES'
p234
aS'EXC'
p235
aS'EXPE'
p236
aS'EXPD'
p237
aS'ESRX'
p238
aS'EXR'
p239
aS'XOM'
p240
aS'FFIV'
p241
aS'FB'
p242
aS'FAST'
p243
aS'FRT'
p244
aS'FDX'
p245
aS'FIS'
p246
aS'FITB'
p247
aS'FE'
p248
aS'FISV'
p249
aS'FLIR'
p250
aS'FLS'
p251
aS'FLR'
p252
aS'FMC'
p253
aS'FL'
p254
aS'F'
p255
aS'FTV'
p256
aS'FBHS'
p257
aS'BEN'
p258
aS'FCX'
p259
aS'GPS'
p260
aS'GRMN'
p261
aS'IT'
p262
aS'GD'
p263
aS'GE'
p264
aS'GGP'
p265
aS'GIS'
p266
aS'GM'
p267
aS'GPC'
p268
aS'GILD'
p269
aS'GPN'
p270
aS'GS'
p271
aS'GT'
p272
aS'GWW'
p273
aS'HAL'
p274
aS'HBI'
p275
aS'HOG'
p276
aS'HRS'
p277
aS'HIG'
p278
aS'HAS'
p279
aS'HCA'
p280
aS'HCP'
p281
aS'HP'
p282
aS'HSIC'
p283
aS'HSY'
p284
aS'HES'
p285
aS'HPE'
p286
aS'HOLX'
p287
aS'HD'
p288
aS'HON'
p289
aS'HRL'
p290
aS'HST'
p291
aS'HPQ'
p292
aS'HUM'
p293
aS'HBAN'
p294
aS'IDXX'
p295
aS'INFO'
p296
aS'ITW'
p297
aS'ILMN'
p298
aS'IR'
p299
aS'INTC'
p300
aS'ICE'
p301
aS'IBM'
p302
aS'INCY'
p303
aS'IP'
p304
aS'IPG'
p305
aS'IFF'
p306
aS'INTU'
p307
aS'ISRG'
p308
aS'IVZ'
p309
aS'IRM'
p310
aS'JEC'
p311
aS'JBHT'
p312
aS'SJM'
p313
aS'JNJ'
p314
aS'JCI'
p315
aS'JPM'
p316
aS'JNPR'
p317
aS'KSU'
p318
aS'K'
p319
aS'KEY'
p320
aS'KMB'
p321
aS'KIM'
p322
aS'KMI'
p323
aS'KLAC'
p324
aS'KSS'
p325
aS'KHC'
p326
aS'KR'
p327
aS'LB'
p328
aS'LLL'
p329
aS'LH'
p330
aS'LRCX'
p331
aS'LEG'
p332
aS'LEN'
p333
aS'LVLT'
p334
aS'LUK'
p335
aS'LLY'
p336
aS'LNC'
p337
aS'LKQ'
p338
aS'LMT'
p339
aS'L'
p340
aS'LOW'
p341
aS'LYB'
p342
aS'MTB'
p343
aS'MAC'
p344
aS'M'
p345
aS'MNK'
p346
aS'MRO'
p347
aS'MPC'
p348
aS'MAR'
p349
aS'MMC'
p350
aS'MLM'
p351
aS'MAS'
p352
aS'MA'
p353
aS'MAT'
p354
aS'MKC'
p355
aS'MCD'
p356
aS'MCK'
p357
aS'MJN'
p358
aS'MDT'
p359
aS'MRK'
p360
aS'MET'
p361
aS'MTD'
p362
aS'KORS'
p363
aS'MCHP'
p364
aS'MU'
p365
aS'MSFT'
p366
aS'MAA'
p367
aS'MHK'
p368
aS'TAP'
p369
aS'MDLZ'
p370
aS'MON'
p371
aS'MNST'
p372
aS'MCO'
p373
aS'MS'
p374
aS'MOS'
p375
aS'MSI'
p376
aS'MUR'
p377
aS'MYL'
p378
aS'NDAQ'
p379
aS'NOV'
p380
aS'NAVI'
p381
aS'NTAP'
p382
aS'NFLX'
p383
aS'NWL'
p384
aS'NFX'
p385
aS'NEM'
p386
aS'NWSA'
p387
aS'NWS'
p388
aS'NEE'
p389
aS'NLSN'
p390
aS'NKE'
p391
aS'NI'
p392
aS'NBL'
p393
aS'JWN'
p394
aS'NSC'
p395
aS'NTRS'
p396
aS'NOC'
p397
aS'NRG'
p398
aS'NUE'
p399
aS'NVDA'
p400
aS'ORLY'
p401
aS'OXY'
p402
aS'OMC'
p403
aS'OKE'
p404
aS'ORCL'
p405
aS'PCAR'
p406
aS'PH'
p407
aS'PDCO'
p408
aS'PAYX'
p409
aS'PYPL'
p410
aS'PNR'
p411
aS'PBCT'
p412
aS'PEP'
p413
aS'PKI'
p414
aS'PRGO'
p415
aS'PFE'
p416
aS'PCG'
p417
aS'PM'
p418
aS'PSX'
p419
aS'PNW'
p420
aS'PXD'
p421
aS'PNC'
p422
aS'RL'
p423
aS'PPG'
p424
aS'PPL'
p425
aS'PX'
p426
aS'PCLN'
p427
aS'PFG'
p428
aS'PG'
p429
aS'PGR'
p430
aS'PLD'
p431
aS'PRU'
p432
aS'PEG'
p433
aS'PSA'
p434
aS'PHM'
p435
aS'PVH'
p436
aS'QRVO'
p437
aS'PWR'
p438
aS'QCOM'
p439
aS'DGX'
p440
aS'RRC'
p441
aS'RJF'
p442
aS'RTN'
p443
aS'O'
p444
aS'RHT'
p445
aS'REG'
p446
aS'REGN'
p447
aS'RF'
p448
aS'RSG'
p449
aS'RAI'
p450
aS'RHI'
p451
aS'ROK'
p452
aS'COL'
p453
aS'ROP'
p454
aS'ROST'
p455
aS'RCL'
p456
aS'R'
p457
aS'CRM'
p458
aS'SCG'
p459
aS'SLB'
p460
aS'SNI'
p461
aS'STX'
p462
aS'SEE'
p463
aS'SRE'
p464
aS'SHW'
p465
aS'SIG'
p466
aS'SPG'
p467
aS'SWKS'
p468
aS'SLG'
p469
aS'SNA'
p470
aS'SO'
p471
aS'LUV'
p472
aS'SPGI'
p473
aS'SWK'
p474
aS'SPLS'
p475
aS'SBUX'
p476
aS'STT'
p477
aS'SRCL'
p478
aS'SYK'
p479
aS'STI'
p480
aS'SYMC'
p481
aS'SYF'
p482
aS'SNPS'
p483
aS'SYY'
p484
aS'TROW'
p485
aS'TGT'
p486
aS'TEL'
p487
aS'FTI'
p488
aS'TDC'
p489
aS'TSO'
p490
aS'TXN'
p491
aS'TXT'
p492
aS'TMO'
p493
aS'TIF'
p494
aS'TWX'
p495
aS'TJX'
p496
aS'TMK'
p497
aS'TSS'
p498
aS'TSCO'
p499
aS'TDG'
p500
aS'RIG'
p501
aS'TRV'
p502
aS'TRIP'
p503
aS'FOXA'
p504
aS'FOX'
p505
aS'TSN'
p506
aS'UDR'
p507
aS'ULTA'
p508
aS'USB'
p509
aS'UA'
p510
aS'UAA'
p511
aS'UNP'
p512
aS'UAL'
p513
aS'UNH'
p514
aS'UPS'
p515
aS'URI'
p516
aS'UTX'
p517
aS'UHS'
p518
aS'UNM'
p519
aS'VFC'
p520
aS'VLO'
p521
aS'VAR'
p522
aS'VTR'
p523
aS'VRSN'
p524
aS'VRSK'
p525
aS'VZ'
p526
aS'VRTX'
p527
aS'VIAB'
p528
aS'V'
p529
aS'VNO'
p530
aS'VMC'
p531
aS'WMT'
p532
aS'WBA'
p533
aS'DIS'
p534
aS'WM'
p535
aS'WAT'
p536
aS'WEC'
p537
aS'WFC'
p538
aS'HCN'
p539
aS'WDC'
p540
aS'WU'
p541
aS'WRK'
p542
aS'WY'
p543
aS'WHR'
p544
aS'WFM'
p545
aS'WMB'
p546
aS'WLTW'
p547
aS'WYN'
p548
aS'WYNN'
p549
aS'XEL'
p550
aS'XRX'
p551
aS'XLNX'
p552
aS'XL'
p553
aS'XYL'
p554
aS'YHOO'
p555
aS'YUM'
p556
aS'ZBH'
p557
aS'ZION'
p558
aS'ZTS'
p559
aS'Industrials'
p560
aS'Health Care'
p561
ag561
aS'Information Technology'
p562
ag562
ag560
ag562
ag562
aS'Consumer Discretionary'
p563
aS'Utilities'
p564
ag561
aS'Financials'
p565
ag565
ag561
aS'Materials'
p566
ag562
ag560
ag566
aS'Real Estate'
p567
ag561
ag560
ag561
ag562
ag564
ag565
ag562
ag562
aS'Consumer Staples'
p568
ag563
ag564
ag560
ag564
ag565
ag565
ag567
ag564
ag565
ag561
ag560
ag561
ag562
aS'Energy'
p569
ag562
ag561
ag565
ag569
ag567
ag562
ag562
ag568
ag560
ag565
ag565
aS'Telecommunication Services'
p570
ag562
ag562
ag563
ag563
ag567
ag566
ag569
ag566
ag565
ag565
ag561
ag561
ag565
ag561
ag563
ag565
ag563
ag561
ag565
ag565
ag560
ag563
ag567
ag561
ag561
ag562
ag568
ag560
ag562
ag569
ag568
ag565
ag561
ag565
ag563
ag563
ag560
ag567
ag563
ag561
ag561
ag564
ag570
ag561
ag566
ag565
ag563
ag569
ag569
ag563
ag565
ag568
ag561
ag569
ag565
ag560
ag562
ag565
ag565
ag562
ag568
ag565
ag564
ag563
ag568
ag562
ag568
ag563
ag565
ag568
ag569
ag569
ag564
ag568
ag561
ag562
ag568
ag568
ag567
ag562
ag560
ag560
ag568
ag563
ag561
ag563
ag561
ag560
ag563
ag560
ag561
ag569
ag567
ag565
ag563
ag563
ag563
ag563
ag563
ag564
ag560
ag566
ag568
ag564
ag566
ag564
ag562
ag565
ag566
ag560
ag562
ag566
ag564
ag561
ag562
ag560
ag564
ag561
ag569
ag569
ag560
ag567
ag567
ag567
ag568
ag564
ag564
ag563
ag560
ag561
ag567
ag569
ag562
ag562
ag560
ag567
ag560
ag562
ag565
ag564
ag562
ag562
ag560
ag560
ag566
ag563
ag563
ag560
ag560
ag565
ag566
ag563
ag563
ag562
ag560
ag560
ag567
ag568
ag563
ag563
ag561
ag562
ag565
ag563
ag560
ag569
ag563
ag563
ag562
ag565
ag563
ag561
ag567
ag569
ag561
ag568
ag569
ag562
ag561
ag563
ag560
ag568
ag567
ag562
ag561
ag565
ag561
ag560
ag560
ag561
ag560
ag562
ag565
ag562
ag561
ag566
ag563
ag566
ag562
ag561
ag565
ag567
ag560
ag560
ag568
ag561
ag560
ag565
ag562
ag560
ag568
ag565
ag568
ag567
ag569
ag562
ag563
ag568
ag568
ag563
ag560
ag561
ag562
ag563
ag563
ag570
ag565
ag561
ag565
ag563
ag560
ag565
ag563
ag566
ag565
ag567
ag563
ag561
ag569
ag569
ag563
ag565
ag566
ag560
ag562
ag563
ag568
ag563
ag561
ag568
ag561
ag561
ag565
ag561
ag563
ag562
ag562
ag562
ag567
ag563
ag568
ag568
ag566
ag568
ag565
ag565
ag566
ag562
ag569
ag561
ag565
ag569
ag565
ag562
ag562
ag563
ag569
ag566
ag563
ag563
ag564
ag560
ag563
ag564
ag569
ag563
ag560
ag565
ag560
ag564
ag566
ag562
ag563
ag569
ag563
ag569
ag562
ag560
ag560
ag561
ag562
ag562
ag560
ag565
ag568
ag561
ag561
ag561
ag564
ag568
ag569
ag564
ag569
ag565
ag563
ag566
ag564
ag566
ag563
ag565
ag568
ag565
ag567
ag565
ag564
ag567
ag563
ag563
ag562
ag560
ag562
ag561
ag569
ag565
ag560
ag567
ag562
ag567
ag561
ag565
ag560
ag568
ag560
ag560
ag560
ag560
ag563
ag563
ag560
ag562
ag564
ag569
ag563
ag562
ag566
ag564
ag566
ag563
ag567
ag562
ag567
ag563
ag564
ag560
ag565
ag563
ag563
ag563
ag565
ag560
ag561
ag565
ag562
ag565
ag562
ag568
ag565
ag563
ag562
ag569
ag562
ag569
ag562
ag560
ag561
ag563
ag563
ag563
ag565
ag562
ag563
ag560
ag569
ag565
ag563
ag563
ag563
ag568
ag567
ag563
ag565
ag563
ag563
ag560
ag560
ag561
ag560
ag560
ag560
ag561
ag565
ag563
ag569
ag561
ag567
ag562
ag560
ag570
ag561
ag563
ag562
ag567
ag566
ag568
ag568
ag563
ag560
ag561
ag564
ag565
ag567
ag562
ag562
ag566
ag567
ag563
ag568
ag569
ag565
ag563
ag563
ag564
ag562
ag562
ag565
ag560
ag562
ag563
ag561
ag565
ag561
aS'INDS'
p571
aS'HC'
p572
ag572
aS'IT'
p573
ag573
ag571
ag573
ag573
aS'CD'
p574
aS'UTIL'
p575
ag572
aS'FIN'
p576
ag576
ag572
aS'MAT'
p577
ag573
ag571
ag577
aS'RE'
p578
ag572
ag571
ag572
ag573
ag575
ag576
ag573
ag573
aS'CS'
p579
ag574
ag575
ag571
ag575
ag576
ag576
ag578
ag575
ag576
ag572
ag571
ag572
ag573
aS'EN'
p580
ag573
ag572
ag576
ag580
ag578
ag573
ag573
ag579
ag571
ag576
ag576
aS'TS'
p581
ag573
ag573
ag574
ag574
ag578
ag577
ag580
ag577
ag576
ag576
ag572
ag572
ag576
ag572
ag574
ag576
ag574
ag572
ag576
ag576
ag571
ag574
ag578
ag572
ag572
ag573
ag579
ag571
ag573
ag580
ag579
ag576
ag572
ag576
ag574
ag574
ag571
ag578
ag574
ag572
ag572
ag575
ag581
ag572
ag577
ag576
ag574
ag580
ag580
ag574
ag576
ag579
ag572
ag580
ag576
ag571
ag573
ag576
ag576
ag573
ag579
ag576
ag575
ag574
ag579
ag573
ag579
ag574
ag576
ag579
ag580
ag580
ag575
ag579
ag572
ag573
ag579
ag579
ag578
ag573
ag571
ag571
ag579
ag574
ag572
ag574
ag572
ag571
ag574
ag571
ag572
ag580
ag578
ag576
ag574
ag574
ag574
ag574
ag574
ag575
ag571
ag577
ag579
ag575
ag577
ag575
ag573
ag576
ag577
ag571
ag573
ag577
ag575
ag572
ag573
ag571
ag575
ag572
ag580
ag580
ag571
ag578
ag578
ag578
ag579
ag575
ag575
ag574
ag571
ag572
ag578
ag580
ag573
ag573
ag571
ag578
ag571
ag573
ag576
ag575
ag573
ag573
ag571
ag571
ag577
ag574
ag574
ag571
ag571
ag576
ag577
ag574
ag574
ag573
ag571
ag571
ag578
ag579
ag574
ag574
ag572
ag573
ag576
ag574
ag571
ag580
ag574
ag574
ag573
ag576
ag574
ag572
ag578
ag580
ag572
ag579
ag580
ag573
ag572
ag574
ag571
ag579
ag578
ag573
ag572
ag576
ag572
ag571
ag571
ag572
ag571
ag573
ag576
ag573
ag572
ag577
ag574
ag577
ag573
ag572
ag576
ag578
ag571
ag571
ag579
ag572
ag571
ag576
ag573
ag571
ag579
ag576
ag579
ag578
ag580
ag573
ag574
ag579
ag579
ag574
ag571
ag572
ag573
ag574
ag574
ag581
ag576
ag572
ag576
ag574
ag571
ag576
ag574
ag577
ag576
ag578
ag574
ag572
ag580
ag580
ag574
ag576
ag577
ag571
ag573
ag574
ag579
ag574
ag572
ag579
ag572
ag572
ag576
ag572
ag574
ag573
ag573
ag573
ag578
ag574
ag579
ag579
ag577
ag579
ag576
ag576
ag577
ag573
ag580
ag572
ag576
ag580
ag576
ag573
ag573
ag574
ag580
ag577
ag574
ag574
ag575
ag571
ag574
ag575
ag580
ag574
ag571
ag576
ag571
ag575
ag577
ag573
ag574
ag580
ag574
ag580
ag573
ag571
ag571
ag572
ag573
ag573
ag571
ag576
ag579
ag572
ag572
ag572
ag575
ag579
ag580
ag575
ag580
ag576
ag574
ag577
ag575
ag577
ag574
ag576
ag579
ag576
ag578
ag576
ag575
ag578
ag574
ag574
ag573
ag571
ag573
ag572
ag580
ag576
ag571
ag578
ag573
ag578
ag572
ag576
ag571
ag579
ag571
ag571
ag571
ag571
ag574
ag574
ag571
ag573
ag575
ag580
ag574
ag573
ag577
ag575
ag577
ag574
ag578
ag573
ag578
ag574
ag575
ag571
ag576
ag574
ag574
ag574
ag576
ag571
ag572
ag576
ag573
ag576
ag573
ag579
ag576
ag574
ag573
ag580
ag573
ag580
ag573
ag571
ag572
ag574
ag574
ag574
ag576
ag573
ag574
ag571
ag580
ag576
ag574
ag574
ag574
ag579
ag578
ag574
ag576
ag574
ag574
ag571
ag571
ag572
ag571
ag571
ag571
ag572
ag576
ag574
ag580
ag572
ag578
ag573
ag571
ag581
ag572
ag574
ag573
ag578
ag577
ag579
ag579
ag574
ag571
ag572
ag575
ag576
ag578
ag573
ag573
ag577
ag578
ag574
ag579
ag580
ag576
ag574
ag574
ag575
ag573
ag573
ag576
ag571
ag573
ag574
ag572
ag576
ag572
atp582
ba(lp583
g17
(g18
(dp584
g20
g21
(g22
(I0
tp585
g24
tp586
Rp587
(I1
(I3
tp588
g31
I00
(lp589
g35
ag36
ag37
atp590
bsg39
Nstp591
Rp592
a(dp593
S'0.14.1'
p594
(dp595
S'axes'
p596
g16
sS'blocks'
p597
(lp598
(dp599
S'mgr_locs'
p600
c__builtin__
slice
p601
(I0
I3
I1
tp602
Rp603
sS'values'
p604
g52
sasstp605
bsbsS'Tickers'
p606
(lp607
S'AGN'
p608
aS'EOG'
p609
aS'WLP'
p610
aS'CPB'
p611
aS'YUM'
p612
aS'JWN'
p613
aS'TAP'
p614
aS'BWA'
p615
aS'WM'
p616
aS'SPG'
p617
aS'FIS'
p618
aS'GT'
p619
aS'GIS'
p620
aS'MJN'
p621
aS'ROP'
p622
aS'GE'
p623
aS'GD'
p624
aS'VAR'
p625
aS'AMZN'
p626
aS'FII'
p627
aS'MAS'
p628
aS'MAR'
p629
aS'MAT'
p630
aS'SNA'
p631
aS'SNI'
p632
aS'XRAY'
p633
aS'JNJ'
p634
aS'XYL'
p635
aS'TSN'
p636
aS'TSO'
p637
aS'BEN'
p638
aS'CMI'
p639
aS'DISCA'
p640
aS'CMG'
p641
aS'CME'
p642
aS'DTE'
p643
aS'PCL'
p644
aS'CMS'
p645
aS'DTV'
p646
aS'VLO'
p647
aS'HUM'
p648
aS'APOL'
p649
aS'LSI'
p650
aS'PCLN'
p651
aS'FSLR'
p652
aS'HCP'
p653
aS'IGT'
p654
ag319
aS'FFIV'
p655
aS'BLL'
p656
aS'ORLY'
p657
aS'BLK'
p658
aS'FTI'
p659
aS'HCN'
p660
aS'NFX'
p661
aS'MA'
p662
aS'CBG'
p663
aS'PRGO'
p664
aS'MO'
p665
aS'NOC'
p666
aS'MU'
p667
aS'CBS'
p668
aS'NDAQ'
p669
aS'SE'
p670
aS'MS'
p671
aS'TJX'
p672
aS'NOV'
p673
aS'AMGN'
p674
aS'COST'
p675
aS'FE'
p676
aS'CTL'
p677
aS'ADBE'
p678
aS'DOV'
p679
aS'DOW'
p680
aS'MSFT'
p681
aS'GLW'
p682
aS'SCHW'
p683
aS'BSX'
p684
aS'FCX'
p685
aS'SPLS'
p686
aS'UPS'
p687
aS'WHR'
p688
aS'BBBY'
p689
aS'MDT'
p690
ag255
aS'DFS'
p691
aS'CVS'
p692
aS'JEC'
p693
ag529
aS'FMC'
p694
aS'AVY'
p695
aS'ALL'
p696
aS'NTAP'
p697
aS'LMT'
p698
aS'MMM'
p699
aS'SO'
p700
aS'JNPR'
p701
aS'MMC'
p702
aS'WEC'
p703
aS'DPS'
p704
aS'IBM'
p705
aS'BAX'
p706
aS'CAT'
p707
aS'CAH'
p708
aS'BAC'
p709
aS'CAM'
p710
aS'GS'
p711
aS'AFL'
p712
aS'CAG'
p713
aS'LM'
p714
aS'LH'
p715
aS'HIG'
p716
aS'CELG'
p717
ag68
aS'ABC'
p718
aS'ZION'
p719
aS'STI'
p720
aS'STJ'
p721
aS'STT'
p722
aS'ABT'
p723
aS'XOM'
p724
aS'STX'
p725
aS'STZ'
p726
aS'CFN'
p727
aS'CERN'
p728
aS'PNR'
p729
aS'CMA'
p730
aS'IVZ'
p731
aS'LO'
p732
aS'PNC'
p733
aS'VFC'
p734
aS'EIX'
p735
aS'XLNX'
p736
aS'AON'
p737
aS'RAI'
p738
aS'PRU'
p739
aS'RF'
p740
aS'RL'
p741
aS'URBN'
p742
aS'CHK'
p743
ag340
aS'HRS'
p744
aS'HRL'
p745
aS'MRO'
p746
aS'MRK'
p747
aS'HRB'
p748
aS'IPG'
p749
aS'RHT'
p750
aS'TYC'
p751
aS'RHI'
p752
aS'APH'
p753
aS'ROST'
p754
aS'APC'
p755
aS'APA'
p756
aS'APD'
p757
aS'KSS'
p758
aS'WFM'
p759
aS'WFC'
p760
aS'IFF'
p761
aS'NVDA'
p762
aS'LUK'
p763
aS'RTN'
p764
aS'BMS'
p765
aS'BMY'
p766
aS'SYMC'
p767
aS'EL'
p768
aS'PAYX'
p769
aS'OXY'
p770
aS'SHW'
p771
aS'GCI'
p772
aS'ED'
p773
aS'EA'
p774
aS'CSC'
p775
aS'CSX'
p776
aS'EW'
p777
aS'BTU'
p778
aS'LUV'
p779
aS'MUR'
p780
aS'ATI'
p781
aS'WYN'
p782
aS'JBL'
p783
aS'ADSK'
p784
aS'WPX'
p785
aS'ECL'
p786
aS'SNDK'
p787
aS'SEE'
p788
aS'DGX'
p789
aS'NUE'
p790
aS'PCP'
p791
aS'EXPE'
p792
aS'EXPD'
p793
aS'UNP'
p794
aS'BHI'
p795
aS'ETFC'
p796
aS'DUK'
p797
aS'XL'
p798
aS'CLF'
p799
ag457
aS'CLX'
p800
aS'FDO'
p801
aS'BBY'
p802
aS'UNH'
p803
aS'FRX'
p804
aS'TRIP'
p805
aS'OMC'
p806
aS'KO'
p807
aS'VMC'
p808
aS'NU'
p809
aS'KR'
p810
aS'LNC'
p811
aS'KEY'
p812
aS'ITW'
p813
aS'KLAC'
p814
aS'DO'
p815
aS'SWK'
p816
aS'RSG'
p817
aS'WYNN'
p818
aS'SWN'
p819
aS'DF'
p820
aS'DG'
p821
aS'DD'
p822
aS'DE'
p823
aS'SWY'
p824
aS'PNW'
p825
aS'TGT'
p826
aS'HBAN'
p827
aS'BIG'
p828
aS'BIIB'
p829
aS'PCG'
p830
aS'POM'
p831
aS'AKAM'
p832
aS'DHI'
p833
ag345
aS'INTU'
p834
aS'BEAM'
p835
aS'ALXN'
p836
aS'DHR'
p837
aS'SLB'
p838
aS'MCO'
p839
aS'MCK'
p840
aS'MCD'
p841
aS'NRG'
p842
aS'PBCT'
p843
aS'VTR'
p844
aS'AXP'
p845
aS'NFLX'
p846
aS'EXC'
p847
aS'AAPL'
p848
aS'SJM'
p849
aS'SRCL'
p850
aS'WU'
p851
aS'WY'
p852
aS'BBT'
p853
aS'VNO'
p854
aS'HSP'
p855
aS'HST'
p856
aS'HSY'
p857
aS'CTSH'
p858
aS'HAL'
p859
aS'FITB'
p860
aS'EQR'
p861
aS'EQT'
p862
aS'GPC'
p863
aS'PDCO'
p864
aS'X'
p865
aS'HAR'
p866
aS'THC'
p867
aS'PH'
p868
aS'GPS'
p869
aS'PHM'
p870
aS'SYK'
p871
aS'BRCM'
p872
aS'KIM'
p873
aS'SYY'
p874
aS'AEP'
p875
aS'AES'
p876
aS'AET'
p877
aS'EMC'
p878
aS'EMN'
p879
aS'ESRX'
p880
aS'AMAT'
p881
aS'FTR'
p882
aS'AEE'
p883
aS'CTAS'
p884
aS'EMR'
p885
aS'FDX'
p886
aS'CRM'
p887
aS'NWSA'
p888
aS'PX'
p889
aS'PG'
p890
aS'CTXS'
p891
aS'PM'
p892
aS'EFX'
p893
ag166
aS'S'
p894
aS'QCOM'
p895
aS'XRX'
p896
aS'ANF'
p897
aS'MOS'
p898
aS'PSA'
p899
aS'PSX'
p900
aS'MON'
p901
aS'JOY'
p902
aS'MCHP'
p903
aS'ALTR'
p904
aS'ETR'
p905
aS'COP'
p906
aS'HES'
p907
aS'DVN'
p908
aS'KMB'
p909
aS'COV'
p910
aS'DVA'
p911
aS'KMI'
p912
aS'GWW'
p913
aS'FISV'
p914
aS'COG'
p915
aS'COF'
p916
aS'COH'
p917
aS'PEG'
p918
aS'ETN'
p919
aS'COL'
p920
aS'BCR'
p921
aS'KMX'
p922
aS'DLTR'
p923
aS'QEP'
p924
aS'CI'
p925
aS'JDSU'
p926
aS'CL'
p927
aS'WAG'
p928
aS'CB'
p929
aS'CA'
p930
aS'CF'
p931
aS'WAT'
p932
aS'CHRW'
p933
aS'TDC'
p934
aS'SBUX'
p935
aS'PLD'
p936
aS'HCBK'
p937
aS'PLL'
p938
aS'CMCSA'
p939
aS'FHN'
p940
aS'MKC'
p941
aS'GNW'
p942
aS'CVX'
p943
aS'AIZ'
p944
aS'BXP'
p945
aS'AIV'
p946
aS'KRFT'
p947
aS'LOW'
p948
aS'TXT'
p949
aS'AIG'
p950
aS'CVC'
p951
aS'DIS'
p952
aS'PPG'
p953
aS'MNST'
p954
aS'NSC'
p955
aS'GAS'
p956
aS'PPL'
p957
aS'OKE'
p958
aS'GOOG'
p959
aS'JCP'
p960
aS'IP'
p961
aS'HPQ'
p962
aS'IR'
p963
aS'IRM'
p964
aS'MTB'
p965
aS'UTX'
p966
aS'JCI'
p967
aS'PWR'
p968
aS'CSCO'
p969
aS'ARG'
p970
aS'WDC'
p971
aS'BA'
p972
aS'BK'
p973
aS'DRI'
p974
aS'CCL'
p975
aS'CCI'
p976
aS'CCE'
p977
aS'TIF'
p978
aS'FLIR'
p979
aS'MYL'
p980
aS'LYB'
p981
aS'SIAL'
p982
ag208
aS'PEP'
p983
aS'WMT'
p984
aS'VZ'
p985
ag108
aS'WMB'
p986
aS'VRSN'
p987
aS'OI'
p988
aS'CINF'
p989
aS'NTRS'
p990
aS'MWV'
p991
aS'ESV'
p992
aS'HP'
p993
aS'FLR'
p994
aS'HD'
p995
aS'LLY'
p996
aS'TMK'
p997
aS'INTC'
p998
aS'SCG'
p999
aS'AMD'
p1000
aS'LLL'
p1001
aS'NWL'
p1002
aS'AMP'
p1003
aS'TMO'
p1004
aS'AMT'
p1005
aS'LRCX'
p1006
aS'CNX'
p1007
aS'YHOO'
p1008
aS'PBI'
p1009
aS'BDX'
p1010
aS'TRV'
p1011
aS'MPC'
p1012
aS'SLM'
p1013
aS'AVP'
p1014
aS'MDLZ'
p1015
aS'AVB'
p1016
aS'NEM'
p1017
aS'FOSL'
p1018
aS'ACE'
p1019
aS'NEE'
p1020
aS'ACN'
p1021
aS'NI'
p1022
aS'TEL'
p1023
aS'NBR'
p1024
aS'RRD'
p1025
aS'RRC'
p1026
aS'NE'
p1027
aS'FAST'
p1028
aS'TEG'
p1029
aS'NBL'
p1030
aS'TER'
p1031
aS'FLS'
p1032
aS'ADT'
p1033
aS'LLTC'
p1034
aS'ADP'
p1035
aS'DNB'
p1036
aS'GILD'
p1037
aS'GME'
p1038
aS'RDC'
p1039
aS'DNR'
p1040
aS'JPM'
p1041
aS'ADM'
p1042
aS'ADI'
p1043
aS'VIAB'
p1044
aS'LEG'
p1045
aS'XEL'
p1046
aS'WIN'
p1047
aS'LEN'
p1048
aS'EBAY'
p1049
aS'MET'
p1050
aS'TWC'
p1051
aS'USB'
p1052
aS'AZO'
p1053
aS'MSI'
p1054
aS'TWX'
p1055
aS'PCAR'
p1056
aS'TXN'
p1057
aS'PETM'
p1058
aS'SRE'
p1059
aS'ORCL'
p1060
aS'TE'
p1061
aS'PXD'
p1062
aS'AA'
p1063
aS'HOG'
p1064
aS'PKI'
p1065
aS'CNP'
p1066
aS'HON'
p1067
aS'DELL'
p1068
aS'ICE'
p1069
aS'AN'
p1070
aS'HOT'
p1071
aS'ROK'
p1072
aS'TROW'
p1073
aS'ISRG'
p1074
aS'PFE'
p1075
aS'NKE'
p1076
aS'PFG'
p1077
aS'TSS'
p1078
as.